ARM GAS  C:\Users\Sam\AppData\Local\Temp\ccN2INyv.s 			page 1


   1              		.cpu cortex-m0
   2              		.fpu softvfp
   3              		.eabi_attribute 20, 1
   4              		.eabi_attribute 21, 1
   5              		.eabi_attribute 23, 3
   6              		.eabi_attribute 24, 1
   7              		.eabi_attribute 25, 1
   8              		.eabi_attribute 26, 1
   9              		.eabi_attribute 30, 6
  10              		.eabi_attribute 34, 0
  11              		.eabi_attribute 18, 4
  12              		.code	16
  13              		.file	"interrupts.c"
  14              		.text
  15              	.Ltext0:
  16              		.cfi_sections	.debug_frame
  17              		.comm	messageTimerFlag,1,1
  18              		.comm	messageReceivedFlag,1,1
  19              		.section	.text.messageReceived_isr,"ax",%progbits
  20              		.align	2
  21              		.global	messageReceived_isr
  22              		.code	16
  23              		.thumb_func
  24              		.type	messageReceived_isr, %function
  25              	messageReceived_isr:
  26              	.LFB33:
  27              		.file 1 ".\\interrupts.c"
   1:.\interrupts.c **** /* ========================================
   2:.\interrupts.c ****  *
   3:.\interrupts.c ****  * Copyright Sam Walsh, 2014
   4:.\interrupts.c ****  * All Rights Reserved.
   5:.\interrupts.c ****  *
   6:.\interrupts.c ****  * Interrupts.c Contains all the interrupts, put your own in here..
   7:.\interrupts.c ****  *
   8:.\interrupts.c ****  * ========================================
   9:.\interrupts.c **** */
  10:.\interrupts.c **** #include <project.h>
  11:.\interrupts.c **** #include <cydevice_trm.h>
  12:.\interrupts.c **** #include <CyLib.h>
  13:.\interrupts.c **** #include <interrupts.h>
  14:.\interrupts.c **** #include <ModbusUART.h>
  15:.\interrupts.c **** #include <MessageTimer.h>
  16:.\interrupts.c **** #include <Modbus.h>
  17:.\interrupts.c **** 
  18:.\interrupts.c **** volatile uint8 messageTimerFlag;
  19:.\interrupts.c **** volatile uint8 messageReceivedFlag;
  20:.\interrupts.c **** 
  21:.\interrupts.c **** extern unsigned char response[125]; //Enough to return all holding-r's
  22:.\interrupts.c **** extern unsigned char received[125]; //Enough to write all holding-r's 
  23:.\interrupts.c **** 
  24:.\interrupts.c **** 
  25:.\interrupts.c **** CY_ISR(messageReceived_isr) 
  26:.\interrupts.c **** {
  28              		.loc 1 26 0
  29              		.cfi_startproc
  30 0000 80B5     		push	{r7, lr}
  31              	.LCFI0:
ARM GAS  C:\Users\Sam\AppData\Local\Temp\ccN2INyv.s 			page 2


  32              		.cfi_def_cfa_offset 8
  33              		.cfi_offset 7, -8
  34              		.cfi_offset 14, -4
  35 0002 82B0     		sub	sp, sp, #8
  36              	.LCFI1:
  37              		.cfi_def_cfa_offset 16
  38 0004 00AF     		add	r7, sp, #0
  39              	.LCFI2:
  40              		.cfi_def_cfa_register 7
  27:.\interrupts.c ****     decodeMessage();  
  41              		.loc 1 27 0
  42 0006 FFF7FEFF 		bl	decodeMessage
  28:.\interrupts.c ****     //Clear the interrupt//
  29:.\interrupts.c ****     uint32 source;
  30:.\interrupts.c ****     messageReceivedFlag = 1;
  43              		.loc 1 30 0
  44 000a 064B     		ldr	r3, .L2
  45 000c 0122     		mov	r2, #1
  46 000e 1A70     		strb	r2, [r3]
  31:.\interrupts.c ****     source = ModbusUART_GetRxInterruptSourceMasked();
  47              		.loc 1 31 0
  48 0010 054B     		ldr	r3, .L2+4
  49 0012 1B68     		ldr	r3, [r3]
  50 0014 7B60     		str	r3, [r7, #4]
  32:.\interrupts.c ****     ModbusUART_ClearRxInterruptSource(source);
  51              		.loc 1 32 0
  52 0016 054B     		ldr	r3, .L2+8
  53 0018 7A68     		ldr	r2, [r7, #4]
  54 001a 1A60     		str	r2, [r3]
  33:.\interrupts.c **** }
  55              		.loc 1 33 0
  56 001c BD46     		mov	sp, r7
  57 001e 02B0     		add	sp, sp, #8
  58              		@ sp needed for prologue
  59 0020 80BD     		pop	{r7, pc}
  60              	.L3:
  61 0022 C046     		.align	2
  62              	.L2:
  63 0024 00000000 		.word	messageReceivedFlag
  64 0028 CC0F0740 		.word	1074204620
  65 002c C00F0740 		.word	1074204608
  66              		.cfi_endproc
  67              	.LFE33:
  68              		.size	messageReceived_isr, .-messageReceived_isr
  69              		.section	.text.endOfMessage_isr,"ax",%progbits
  70              		.align	2
  71              		.global	endOfMessage_isr
  72              		.code	16
  73              		.thumb_func
  74              		.type	endOfMessage_isr, %function
  75              	endOfMessage_isr:
  76              	.LFB34:
  34:.\interrupts.c **** 
  35:.\interrupts.c **** CY_ISR(endOfMessage_isr) 
  36:.\interrupts.c **** {
  77              		.loc 1 36 0
  78              		.cfi_startproc
ARM GAS  C:\Users\Sam\AppData\Local\Temp\ccN2INyv.s 			page 3


  79 0000 80B5     		push	{r7, lr}
  80              	.LCFI3:
  81              		.cfi_def_cfa_offset 8
  82              		.cfi_offset 7, -8
  83              		.cfi_offset 14, -4
  84 0002 82B0     		sub	sp, sp, #8
  85              	.LCFI4:
  86              		.cfi_def_cfa_offset 16
  87 0004 00AF     		add	r7, sp, #0
  88              	.LCFI5:
  89              		.cfi_def_cfa_register 7
  37:.\interrupts.c ****     checkIfEndOfMessage();
  90              		.loc 1 37 0
  91 0006 FFF7FEFF 		bl	checkIfEndOfMessage
  38:.\interrupts.c ****     //Clear the interrupt//
  39:.\interrupts.c ****     uint32 source = 0;
  92              		.loc 1 39 0
  93 000a 0023     		mov	r3, #0
  94 000c 7B60     		str	r3, [r7, #4]
  40:.\interrupts.c ****     messageTimerFlag = 1;
  95              		.loc 1 40 0
  96 000e 074B     		ldr	r3, .L5
  97 0010 0122     		mov	r2, #1
  98 0012 1A70     		strb	r2, [r3]
  41:.\interrupts.c ****     source = MessageTimer_GetInterruptSource();
  99              		.loc 1 41 0
 100 0014 FFF7FEFF 		bl	MessageTimer_GetInterruptSource
 101 0018 031C     		mov	r3, r0
 102 001a 7B60     		str	r3, [r7, #4]
  42:.\interrupts.c ****     MessageTimer_ClearInterrupt(source);
 103              		.loc 1 42 0
 104 001c 7B68     		ldr	r3, [r7, #4]
 105 001e 181C     		mov	r0, r3
 106 0020 FFF7FEFF 		bl	MessageTimer_ClearInterrupt
  43:.\interrupts.c **** }
 107              		.loc 1 43 0
 108 0024 BD46     		mov	sp, r7
 109 0026 02B0     		add	sp, sp, #8
 110              		@ sp needed for prologue
 111 0028 80BD     		pop	{r7, pc}
 112              	.L6:
 113 002a C046     		.align	2
 114              	.L5:
 115 002c 00000000 		.word	messageTimerFlag
 116              		.cfi_endproc
 117              	.LFE34:
 118              		.size	endOfMessage_isr, .-endOfMessage_isr
 119              		.text
 120              	.Letext0:
 121              		.file 2 "./Generated_Source/PSoC4/cytypes.h"