ARM GAS  C:\Users\Sam\AppData\Local\Temp\cc1W6NQn.s 			page 1


   1              		.cpu cortex-m0
   2              		.fpu softvfp
   3              		.eabi_attribute 20, 1
   4              		.eabi_attribute 21, 1
   5              		.eabi_attribute 23, 3
   6              		.eabi_attribute 24, 1
   7              		.eabi_attribute 25, 1
   8              		.eabi_attribute 26, 1
   9              		.eabi_attribute 30, 6
  10              		.eabi_attribute 34, 0
  11              		.eabi_attribute 18, 4
  12              		.code	16
  13              		.file	"MessageTimer_PM.c"
  14              		.text
  15              	.Ltext0:
  16              		.cfi_sections	.debug_frame
  17              		.bss
  18              		.align	2
  19              	MessageTimer_backup:
  20 0000 00       		.space	1
  21 0001 000000   		.section	.text.MessageTimer_SaveConfig,"ax",%progbits
  22              		.align	2
  23              		.global	MessageTimer_SaveConfig
  24              		.code	16
  25              		.thumb_func
  26              		.type	MessageTimer_SaveConfig, %function
  27              	MessageTimer_SaveConfig:
  28              	.LFB0:
  29              		.file 1 ".\\Generated_Source\\PSoC4\\MessageTimer_PM.c"
   1:.\Generated_Source\PSoC4/MessageTimer_PM.c **** /*******************************************************************************
   2:.\Generated_Source\PSoC4/MessageTimer_PM.c **** * File Name: MessageTimer_PM.c
   3:.\Generated_Source\PSoC4/MessageTimer_PM.c **** * Version 1.0
   4:.\Generated_Source\PSoC4/MessageTimer_PM.c **** *
   5:.\Generated_Source\PSoC4/MessageTimer_PM.c **** * Description:
   6:.\Generated_Source\PSoC4/MessageTimer_PM.c **** *  This file contains the setup, control and status commands to support
   7:.\Generated_Source\PSoC4/MessageTimer_PM.c **** *  component operations in low power mode.
   8:.\Generated_Source\PSoC4/MessageTimer_PM.c **** *
   9:.\Generated_Source\PSoC4/MessageTimer_PM.c **** * Note:
  10:.\Generated_Source\PSoC4/MessageTimer_PM.c **** *  None
  11:.\Generated_Source\PSoC4/MessageTimer_PM.c **** *
  12:.\Generated_Source\PSoC4/MessageTimer_PM.c **** ********************************************************************************
  13:.\Generated_Source\PSoC4/MessageTimer_PM.c **** * Copyright 2013, Cypress Semiconductor Corporation.  All rights reserved.
  14:.\Generated_Source\PSoC4/MessageTimer_PM.c **** * You may use this file only in accordance with the license, terms, conditions,
  15:.\Generated_Source\PSoC4/MessageTimer_PM.c **** * disclaimers, and limitations in the end user license agreement accompanying
  16:.\Generated_Source\PSoC4/MessageTimer_PM.c **** * the software package with which this file was provided.
  17:.\Generated_Source\PSoC4/MessageTimer_PM.c **** *******************************************************************************/
  18:.\Generated_Source\PSoC4/MessageTimer_PM.c **** 
  19:.\Generated_Source\PSoC4/MessageTimer_PM.c **** #include "MessageTimer.h"
  20:.\Generated_Source\PSoC4/MessageTimer_PM.c **** 
  21:.\Generated_Source\PSoC4/MessageTimer_PM.c **** static MessageTimer_BACKUP_STRUCT MessageTimer_backup;
  22:.\Generated_Source\PSoC4/MessageTimer_PM.c **** 
  23:.\Generated_Source\PSoC4/MessageTimer_PM.c **** 
  24:.\Generated_Source\PSoC4/MessageTimer_PM.c **** /*******************************************************************************
  25:.\Generated_Source\PSoC4/MessageTimer_PM.c **** * Function Name: MessageTimer_SaveConfig
  26:.\Generated_Source\PSoC4/MessageTimer_PM.c **** ********************************************************************************
  27:.\Generated_Source\PSoC4/MessageTimer_PM.c **** *
  28:.\Generated_Source\PSoC4/MessageTimer_PM.c **** * Summary:
ARM GAS  C:\Users\Sam\AppData\Local\Temp\cc1W6NQn.s 			page 2


  29:.\Generated_Source\PSoC4/MessageTimer_PM.c **** *  All configuration registers are retention. Nothing to save here.
  30:.\Generated_Source\PSoC4/MessageTimer_PM.c **** *
  31:.\Generated_Source\PSoC4/MessageTimer_PM.c **** * Parameters:
  32:.\Generated_Source\PSoC4/MessageTimer_PM.c **** *  None
  33:.\Generated_Source\PSoC4/MessageTimer_PM.c **** *
  34:.\Generated_Source\PSoC4/MessageTimer_PM.c **** * Return:
  35:.\Generated_Source\PSoC4/MessageTimer_PM.c **** *  None
  36:.\Generated_Source\PSoC4/MessageTimer_PM.c **** *
  37:.\Generated_Source\PSoC4/MessageTimer_PM.c **** *******************************************************************************/
  38:.\Generated_Source\PSoC4/MessageTimer_PM.c **** void MessageTimer_SaveConfig(void)
  39:.\Generated_Source\PSoC4/MessageTimer_PM.c **** {
  30              		.loc 1 39 0
  31              		.cfi_startproc
  32 0000 80B5     		push	{r7, lr}
  33              	.LCFI0:
  34              		.cfi_def_cfa_offset 8
  35              		.cfi_offset 7, -8
  36              		.cfi_offset 14, -4
  37 0002 00AF     		add	r7, sp, #0
  38              	.LCFI1:
  39              		.cfi_def_cfa_register 7
  40:.\Generated_Source\PSoC4/MessageTimer_PM.c **** 
  41:.\Generated_Source\PSoC4/MessageTimer_PM.c **** }
  40              		.loc 1 41 0
  41 0004 BD46     		mov	sp, r7
  42              		@ sp needed for prologue
  43 0006 80BD     		pop	{r7, pc}
  44              		.cfi_endproc
  45              	.LFE0:
  46              		.size	MessageTimer_SaveConfig, .-MessageTimer_SaveConfig
  47              		.section	.text.MessageTimer_Sleep,"ax",%progbits
  48              		.align	2
  49              		.global	MessageTimer_Sleep
  50              		.code	16
  51              		.thumb_func
  52              		.type	MessageTimer_Sleep, %function
  53              	MessageTimer_Sleep:
  54              	.LFB1:
  42:.\Generated_Source\PSoC4/MessageTimer_PM.c **** 
  43:.\Generated_Source\PSoC4/MessageTimer_PM.c **** 
  44:.\Generated_Source\PSoC4/MessageTimer_PM.c **** /*******************************************************************************
  45:.\Generated_Source\PSoC4/MessageTimer_PM.c **** * Function Name: MessageTimer_Sleep
  46:.\Generated_Source\PSoC4/MessageTimer_PM.c **** ********************************************************************************
  47:.\Generated_Source\PSoC4/MessageTimer_PM.c **** *
  48:.\Generated_Source\PSoC4/MessageTimer_PM.c **** * Summary:
  49:.\Generated_Source\PSoC4/MessageTimer_PM.c **** *  Stops the component operation and saves the user configuration.
  50:.\Generated_Source\PSoC4/MessageTimer_PM.c **** *
  51:.\Generated_Source\PSoC4/MessageTimer_PM.c **** * Parameters:
  52:.\Generated_Source\PSoC4/MessageTimer_PM.c **** *  None
  53:.\Generated_Source\PSoC4/MessageTimer_PM.c **** *
  54:.\Generated_Source\PSoC4/MessageTimer_PM.c **** * Return:
  55:.\Generated_Source\PSoC4/MessageTimer_PM.c **** *  None
  56:.\Generated_Source\PSoC4/MessageTimer_PM.c **** *
  57:.\Generated_Source\PSoC4/MessageTimer_PM.c **** *******************************************************************************/
  58:.\Generated_Source\PSoC4/MessageTimer_PM.c **** void MessageTimer_Sleep(void)
  59:.\Generated_Source\PSoC4/MessageTimer_PM.c **** {
  55              		.loc 1 59 0
ARM GAS  C:\Users\Sam\AppData\Local\Temp\cc1W6NQn.s 			page 3


  56              		.cfi_startproc
  57 0000 80B5     		push	{r7, lr}
  58              	.LCFI2:
  59              		.cfi_def_cfa_offset 8
  60              		.cfi_offset 7, -8
  61              		.cfi_offset 14, -4
  62 0002 00AF     		add	r7, sp, #0
  63              	.LCFI3:
  64              		.cfi_def_cfa_register 7
  60:.\Generated_Source\PSoC4/MessageTimer_PM.c ****     if(0u != (MessageTimer_BLOCK_CONTROL_REG & MessageTimer_MASK))
  65              		.loc 1 60 0
  66 0004 084B     		ldr	r3, .L5
  67 0006 1A68     		ldr	r2, [r3]
  68 0008 0123     		mov	r3, #1
  69 000a 1340     		and	r3, r2
  70 000c 03D0     		beq	.L3
  61:.\Generated_Source\PSoC4/MessageTimer_PM.c ****     {
  62:.\Generated_Source\PSoC4/MessageTimer_PM.c ****         MessageTimer_backup.enableState = 1u;
  71              		.loc 1 62 0
  72 000e 074B     		ldr	r3, .L5+4
  73 0010 0122     		mov	r2, #1
  74 0012 1A70     		strb	r2, [r3]
  75 0014 02E0     		b	.L4
  76              	.L3:
  63:.\Generated_Source\PSoC4/MessageTimer_PM.c ****     }
  64:.\Generated_Source\PSoC4/MessageTimer_PM.c ****     else
  65:.\Generated_Source\PSoC4/MessageTimer_PM.c ****     {
  66:.\Generated_Source\PSoC4/MessageTimer_PM.c ****         MessageTimer_backup.enableState = 0u;
  77              		.loc 1 66 0
  78 0016 054B     		ldr	r3, .L5+4
  79 0018 0022     		mov	r2, #0
  80 001a 1A70     		strb	r2, [r3]
  81              	.L4:
  67:.\Generated_Source\PSoC4/MessageTimer_PM.c ****     }
  68:.\Generated_Source\PSoC4/MessageTimer_PM.c **** 
  69:.\Generated_Source\PSoC4/MessageTimer_PM.c ****     MessageTimer_Stop();
  82              		.loc 1 69 0
  83 001c FFF7FEFF 		bl	MessageTimer_Stop
  70:.\Generated_Source\PSoC4/MessageTimer_PM.c ****     MessageTimer_SaveConfig();
  84              		.loc 1 70 0
  85 0020 FFF7FEFF 		bl	MessageTimer_SaveConfig
  71:.\Generated_Source\PSoC4/MessageTimer_PM.c **** }
  86              		.loc 1 71 0
  87 0024 BD46     		mov	sp, r7
  88              		@ sp needed for prologue
  89 0026 80BD     		pop	{r7, pc}
  90              	.L6:
  91              		.align	2
  92              	.L5:
  93 0028 00000540 		.word	1074069504
  94 002c 00000000 		.word	MessageTimer_backup
  95              		.cfi_endproc
  96              	.LFE1:
  97              		.size	MessageTimer_Sleep, .-MessageTimer_Sleep
  98              		.section	.text.MessageTimer_RestoreConfig,"ax",%progbits
  99              		.align	2
 100              		.global	MessageTimer_RestoreConfig
ARM GAS  C:\Users\Sam\AppData\Local\Temp\cc1W6NQn.s 			page 4


 101              		.code	16
 102              		.thumb_func
 103              		.type	MessageTimer_RestoreConfig, %function
 104              	MessageTimer_RestoreConfig:
 105              	.LFB2:
  72:.\Generated_Source\PSoC4/MessageTimer_PM.c **** 
  73:.\Generated_Source\PSoC4/MessageTimer_PM.c **** 
  74:.\Generated_Source\PSoC4/MessageTimer_PM.c **** /*******************************************************************************
  75:.\Generated_Source\PSoC4/MessageTimer_PM.c **** * Function Name: MessageTimer_RestoreConfig
  76:.\Generated_Source\PSoC4/MessageTimer_PM.c **** ********************************************************************************
  77:.\Generated_Source\PSoC4/MessageTimer_PM.c **** *
  78:.\Generated_Source\PSoC4/MessageTimer_PM.c **** * Summary:
  79:.\Generated_Source\PSoC4/MessageTimer_PM.c **** *  All configuration registers are retention. Nothing to restore here.
  80:.\Generated_Source\PSoC4/MessageTimer_PM.c **** *
  81:.\Generated_Source\PSoC4/MessageTimer_PM.c **** * Parameters:
  82:.\Generated_Source\PSoC4/MessageTimer_PM.c **** *  None
  83:.\Generated_Source\PSoC4/MessageTimer_PM.c **** *
  84:.\Generated_Source\PSoC4/MessageTimer_PM.c **** * Return:
  85:.\Generated_Source\PSoC4/MessageTimer_PM.c **** *  None
  86:.\Generated_Source\PSoC4/MessageTimer_PM.c **** *
  87:.\Generated_Source\PSoC4/MessageTimer_PM.c **** *******************************************************************************/
  88:.\Generated_Source\PSoC4/MessageTimer_PM.c **** void MessageTimer_RestoreConfig(void)
  89:.\Generated_Source\PSoC4/MessageTimer_PM.c **** {
 106              		.loc 1 89 0
 107              		.cfi_startproc
 108 0000 80B5     		push	{r7, lr}
 109              	.LCFI4:
 110              		.cfi_def_cfa_offset 8
 111              		.cfi_offset 7, -8
 112              		.cfi_offset 14, -4
 113 0002 00AF     		add	r7, sp, #0
 114              	.LCFI5:
 115              		.cfi_def_cfa_register 7
  90:.\Generated_Source\PSoC4/MessageTimer_PM.c **** 
  91:.\Generated_Source\PSoC4/MessageTimer_PM.c **** }
 116              		.loc 1 91 0
 117 0004 BD46     		mov	sp, r7
 118              		@ sp needed for prologue
 119 0006 80BD     		pop	{r7, pc}
 120              		.cfi_endproc
 121              	.LFE2:
 122              		.size	MessageTimer_RestoreConfig, .-MessageTimer_RestoreConfig
 123              		.section	.text.MessageTimer_Wakeup,"ax",%progbits
 124              		.align	2
 125              		.global	MessageTimer_Wakeup
 126              		.code	16
 127              		.thumb_func
 128              		.type	MessageTimer_Wakeup, %function
 129              	MessageTimer_Wakeup:
 130              	.LFB3:
  92:.\Generated_Source\PSoC4/MessageTimer_PM.c **** 
  93:.\Generated_Source\PSoC4/MessageTimer_PM.c **** 
  94:.\Generated_Source\PSoC4/MessageTimer_PM.c **** /*******************************************************************************
  95:.\Generated_Source\PSoC4/MessageTimer_PM.c **** * Function Name: MessageTimer_Wakeup
  96:.\Generated_Source\PSoC4/MessageTimer_PM.c **** ********************************************************************************
  97:.\Generated_Source\PSoC4/MessageTimer_PM.c **** *
  98:.\Generated_Source\PSoC4/MessageTimer_PM.c **** * Summary:
ARM GAS  C:\Users\Sam\AppData\Local\Temp\cc1W6NQn.s 			page 5


  99:.\Generated_Source\PSoC4/MessageTimer_PM.c **** *  Restores the user configuration and restores the enable state.
 100:.\Generated_Source\PSoC4/MessageTimer_PM.c **** *
 101:.\Generated_Source\PSoC4/MessageTimer_PM.c **** * Parameters:
 102:.\Generated_Source\PSoC4/MessageTimer_PM.c **** *  None
 103:.\Generated_Source\PSoC4/MessageTimer_PM.c **** *
 104:.\Generated_Source\PSoC4/MessageTimer_PM.c **** * Return:
 105:.\Generated_Source\PSoC4/MessageTimer_PM.c **** *  None
 106:.\Generated_Source\PSoC4/MessageTimer_PM.c **** *
 107:.\Generated_Source\PSoC4/MessageTimer_PM.c **** *******************************************************************************/
 108:.\Generated_Source\PSoC4/MessageTimer_PM.c **** void MessageTimer_Wakeup(void)
 109:.\Generated_Source\PSoC4/MessageTimer_PM.c **** {
 131              		.loc 1 109 0
 132              		.cfi_startproc
 133 0000 80B5     		push	{r7, lr}
 134              	.LCFI6:
 135              		.cfi_def_cfa_offset 8
 136              		.cfi_offset 7, -8
 137              		.cfi_offset 14, -4
 138 0002 00AF     		add	r7, sp, #0
 139              	.LCFI7:
 140              		.cfi_def_cfa_register 7
 110:.\Generated_Source\PSoC4/MessageTimer_PM.c ****     MessageTimer_RestoreConfig();
 141              		.loc 1 110 0
 142 0004 FFF7FEFF 		bl	MessageTimer_RestoreConfig
 111:.\Generated_Source\PSoC4/MessageTimer_PM.c **** 
 112:.\Generated_Source\PSoC4/MessageTimer_PM.c ****     if(0u != MessageTimer_backup.enableState)
 143              		.loc 1 112 0
 144 0008 034B     		ldr	r3, .L10
 145 000a 1B78     		ldrb	r3, [r3]
 146 000c 002B     		cmp	r3, #0
 147 000e 01D0     		beq	.L8
 113:.\Generated_Source\PSoC4/MessageTimer_PM.c ****     {
 114:.\Generated_Source\PSoC4/MessageTimer_PM.c ****         MessageTimer_Enable();
 148              		.loc 1 114 0
 149 0010 FFF7FEFF 		bl	MessageTimer_Enable
 150              	.L8:
 115:.\Generated_Source\PSoC4/MessageTimer_PM.c ****     }
 116:.\Generated_Source\PSoC4/MessageTimer_PM.c **** }
 151              		.loc 1 116 0
 152 0014 BD46     		mov	sp, r7
 153              		@ sp needed for prologue
 154 0016 80BD     		pop	{r7, pc}
 155              	.L11:
 156              		.align	2
 157              	.L10:
 158 0018 00000000 		.word	MessageTimer_backup
 159              		.cfi_endproc
 160              	.LFE3:
 161              		.size	MessageTimer_Wakeup, .-MessageTimer_Wakeup
 162              		.text
 163              	.Letext0:
 164              		.file 2 ".\\Generated_Source\\PSoC4\\cytypes.h"
 165              		.file 3 ".\\Generated_Source\\PSoC4\\MessageTimer.h"