ARM GAS  C:\Users\Sam\AppData\Local\Temp\ccFNtiZ6.s 			page 1


   1              		.cpu cortex-m0
   2              		.fpu softvfp
   3              		.eabi_attribute 20, 1
   4              		.eabi_attribute 21, 1
   5              		.eabi_attribute 23, 3
   6              		.eabi_attribute 24, 1
   7              		.eabi_attribute 25, 1
   8              		.eabi_attribute 26, 1
   9              		.eabi_attribute 30, 6
  10              		.eabi_attribute 34, 0
  11              		.eabi_attribute 18, 4
  12              		.code	16
  13              		.file	"messageTimerInterrupt.c"
  14              		.text
  15              	.Ltext0:
  16              		.cfi_sections	.debug_frame
  17              		.section	.text.messageTimerInterrupt_Start,"ax",%progbits
  18              		.align	2
  19              		.global	messageTimerInterrupt_Start
  20              		.code	16
  21              		.thumb_func
  22              		.type	messageTimerInterrupt_Start, %function
  23              	messageTimerInterrupt_Start:
  24              	.LFB0:
  25              		.file 1 ".\\Generated_Source\\PSoC4\\messageTimerInterrupt.c"
   1:.\Generated_Source\PSoC4/messageTimerInterrupt.c **** /*******************************************************************************
   2:.\Generated_Source\PSoC4/messageTimerInterrupt.c **** * File Name: messageTimerInterrupt.c  
   3:.\Generated_Source\PSoC4/messageTimerInterrupt.c **** * Version 1.70
   4:.\Generated_Source\PSoC4/messageTimerInterrupt.c **** *
   5:.\Generated_Source\PSoC4/messageTimerInterrupt.c **** *  Description:
   6:.\Generated_Source\PSoC4/messageTimerInterrupt.c **** *   API for controlling the state of an interrupt.
   7:.\Generated_Source\PSoC4/messageTimerInterrupt.c **** *
   8:.\Generated_Source\PSoC4/messageTimerInterrupt.c **** *
   9:.\Generated_Source\PSoC4/messageTimerInterrupt.c **** *  Note:
  10:.\Generated_Source\PSoC4/messageTimerInterrupt.c **** *
  11:.\Generated_Source\PSoC4/messageTimerInterrupt.c **** ********************************************************************************
  12:.\Generated_Source\PSoC4/messageTimerInterrupt.c **** * Copyright 2008-2012, Cypress Semiconductor Corporation.  All rights reserved.
  13:.\Generated_Source\PSoC4/messageTimerInterrupt.c **** * You may use this file only in accordance with the license, terms, conditions, 
  14:.\Generated_Source\PSoC4/messageTimerInterrupt.c **** * disclaimers, and limitations in the end user license agreement accompanying 
  15:.\Generated_Source\PSoC4/messageTimerInterrupt.c **** * the software package with which this file was provided.
  16:.\Generated_Source\PSoC4/messageTimerInterrupt.c **** *******************************************************************************/
  17:.\Generated_Source\PSoC4/messageTimerInterrupt.c **** 
  18:.\Generated_Source\PSoC4/messageTimerInterrupt.c **** 
  19:.\Generated_Source\PSoC4/messageTimerInterrupt.c **** #include <cydevice_trm.h>
  20:.\Generated_Source\PSoC4/messageTimerInterrupt.c **** #include <CyLib.h>
  21:.\Generated_Source\PSoC4/messageTimerInterrupt.c **** #include <messageTimerInterrupt.h>
  22:.\Generated_Source\PSoC4/messageTimerInterrupt.c **** 
  23:.\Generated_Source\PSoC4/messageTimerInterrupt.c **** #if !defined(messageTimerInterrupt__REMOVED) /* Check for removal by optimization */
  24:.\Generated_Source\PSoC4/messageTimerInterrupt.c **** 
  25:.\Generated_Source\PSoC4/messageTimerInterrupt.c **** /*******************************************************************************
  26:.\Generated_Source\PSoC4/messageTimerInterrupt.c **** *  Place your includes, defines and code here 
  27:.\Generated_Source\PSoC4/messageTimerInterrupt.c **** ********************************************************************************/
  28:.\Generated_Source\PSoC4/messageTimerInterrupt.c **** /* `#START messageTimerInterrupt_intc` */
  29:.\Generated_Source\PSoC4/messageTimerInterrupt.c **** #include <messageTimer.h>
  30:.\Generated_Source\PSoC4/messageTimerInterrupt.c **** extern uint8 volatile interruptFlag;
  31:.\Generated_Source\PSoC4/messageTimerInterrupt.c **** /* `#END` */
  32:.\Generated_Source\PSoC4/messageTimerInterrupt.c **** 
ARM GAS  C:\Users\Sam\AppData\Local\Temp\ccFNtiZ6.s 			page 2


  33:.\Generated_Source\PSoC4/messageTimerInterrupt.c **** extern cyisraddress CyRamVectors[CYINT_IRQ_BASE + CY_NUM_INTERRUPTS];
  34:.\Generated_Source\PSoC4/messageTimerInterrupt.c **** 
  35:.\Generated_Source\PSoC4/messageTimerInterrupt.c **** /* Declared in startup, used to set unused interrupts to. */
  36:.\Generated_Source\PSoC4/messageTimerInterrupt.c **** CY_ISR_PROTO(IntDefaultHandler);
  37:.\Generated_Source\PSoC4/messageTimerInterrupt.c **** 
  38:.\Generated_Source\PSoC4/messageTimerInterrupt.c **** 
  39:.\Generated_Source\PSoC4/messageTimerInterrupt.c **** /*******************************************************************************
  40:.\Generated_Source\PSoC4/messageTimerInterrupt.c **** * Function Name: messageTimerInterrupt_Start
  41:.\Generated_Source\PSoC4/messageTimerInterrupt.c **** ********************************************************************************
  42:.\Generated_Source\PSoC4/messageTimerInterrupt.c **** *
  43:.\Generated_Source\PSoC4/messageTimerInterrupt.c **** * Summary:
  44:.\Generated_Source\PSoC4/messageTimerInterrupt.c **** *  Set up the interrupt and enable it.
  45:.\Generated_Source\PSoC4/messageTimerInterrupt.c **** *
  46:.\Generated_Source\PSoC4/messageTimerInterrupt.c **** * Parameters:  
  47:.\Generated_Source\PSoC4/messageTimerInterrupt.c **** *   None
  48:.\Generated_Source\PSoC4/messageTimerInterrupt.c **** *
  49:.\Generated_Source\PSoC4/messageTimerInterrupt.c **** * Return:
  50:.\Generated_Source\PSoC4/messageTimerInterrupt.c **** *   None
  51:.\Generated_Source\PSoC4/messageTimerInterrupt.c **** *
  52:.\Generated_Source\PSoC4/messageTimerInterrupt.c **** *******************************************************************************/
  53:.\Generated_Source\PSoC4/messageTimerInterrupt.c **** void messageTimerInterrupt_Start(void)
  54:.\Generated_Source\PSoC4/messageTimerInterrupt.c **** {
  26              		.loc 1 54 0
  27              		.cfi_startproc
  28 0000 80B5     		push	{r7, lr}
  29              	.LCFI0:
  30              		.cfi_def_cfa_offset 8
  31              		.cfi_offset 7, -8
  32              		.cfi_offset 14, -4
  33 0002 00AF     		add	r7, sp, #0
  34              	.LCFI1:
  35              		.cfi_def_cfa_register 7
  55:.\Generated_Source\PSoC4/messageTimerInterrupt.c ****     /* For all we know the interrupt is active. */
  56:.\Generated_Source\PSoC4/messageTimerInterrupt.c ****     messageTimerInterrupt_Disable();
  36              		.loc 1 56 0
  37 0004 FFF7FEFF 		bl	messageTimerInterrupt_Disable
  57:.\Generated_Source\PSoC4/messageTimerInterrupt.c **** 
  58:.\Generated_Source\PSoC4/messageTimerInterrupt.c ****     /* Set the ISR to point to the messageTimerInterrupt Interrupt. */
  59:.\Generated_Source\PSoC4/messageTimerInterrupt.c ****     messageTimerInterrupt_SetVector(&messageTimerInterrupt_Interrupt);
  38              		.loc 1 59 0
  39 0008 054B     		ldr	r3, .L2
  40 000a 181C     		mov	r0, r3
  41 000c FFF7FEFF 		bl	messageTimerInterrupt_SetVector
  60:.\Generated_Source\PSoC4/messageTimerInterrupt.c **** 
  61:.\Generated_Source\PSoC4/messageTimerInterrupt.c ****     /* Set the priority. */
  62:.\Generated_Source\PSoC4/messageTimerInterrupt.c ****     messageTimerInterrupt_SetPriority((uint8)messageTimerInterrupt_INTC_PRIOR_NUMBER);
  42              		.loc 1 62 0
  43 0010 0120     		mov	r0, #1
  44 0012 FFF7FEFF 		bl	messageTimerInterrupt_SetPriority
  63:.\Generated_Source\PSoC4/messageTimerInterrupt.c **** 
  64:.\Generated_Source\PSoC4/messageTimerInterrupt.c ****     /* Enable it. */
  65:.\Generated_Source\PSoC4/messageTimerInterrupt.c ****     messageTimerInterrupt_Enable();
  45              		.loc 1 65 0
  46 0016 FFF7FEFF 		bl	messageTimerInterrupt_Enable
  66:.\Generated_Source\PSoC4/messageTimerInterrupt.c **** }
  47              		.loc 1 66 0
  48 001a BD46     		mov	sp, r7
ARM GAS  C:\Users\Sam\AppData\Local\Temp\ccFNtiZ6.s 			page 3


  49              		@ sp needed for prologue
  50 001c 80BD     		pop	{r7, pc}
  51              	.L3:
  52 001e C046     		.align	2
  53              	.L2:
  54 0020 00000000 		.word	messageTimerInterrupt_Interrupt
  55              		.cfi_endproc
  56              	.LFE0:
  57              		.size	messageTimerInterrupt_Start, .-messageTimerInterrupt_Start
  58              		.section	.text.messageTimerInterrupt_StartEx,"ax",%progbits
  59              		.align	2
  60              		.global	messageTimerInterrupt_StartEx
  61              		.code	16
  62              		.thumb_func
  63              		.type	messageTimerInterrupt_StartEx, %function
  64              	messageTimerInterrupt_StartEx:
  65              	.LFB1:
  67:.\Generated_Source\PSoC4/messageTimerInterrupt.c **** 
  68:.\Generated_Source\PSoC4/messageTimerInterrupt.c **** 
  69:.\Generated_Source\PSoC4/messageTimerInterrupt.c **** /*******************************************************************************
  70:.\Generated_Source\PSoC4/messageTimerInterrupt.c **** * Function Name: messageTimerInterrupt_StartEx
  71:.\Generated_Source\PSoC4/messageTimerInterrupt.c **** ********************************************************************************
  72:.\Generated_Source\PSoC4/messageTimerInterrupt.c **** *
  73:.\Generated_Source\PSoC4/messageTimerInterrupt.c **** * Summary:
  74:.\Generated_Source\PSoC4/messageTimerInterrupt.c **** *  Set up the interrupt and enable it.
  75:.\Generated_Source\PSoC4/messageTimerInterrupt.c **** *
  76:.\Generated_Source\PSoC4/messageTimerInterrupt.c **** * Parameters:  
  77:.\Generated_Source\PSoC4/messageTimerInterrupt.c **** *   address: Address of the ISR to set in the interrupt vector table.
  78:.\Generated_Source\PSoC4/messageTimerInterrupt.c **** *
  79:.\Generated_Source\PSoC4/messageTimerInterrupt.c **** * Return:
  80:.\Generated_Source\PSoC4/messageTimerInterrupt.c **** *   None
  81:.\Generated_Source\PSoC4/messageTimerInterrupt.c **** *
  82:.\Generated_Source\PSoC4/messageTimerInterrupt.c **** *******************************************************************************/
  83:.\Generated_Source\PSoC4/messageTimerInterrupt.c **** void messageTimerInterrupt_StartEx(cyisraddress address)
  84:.\Generated_Source\PSoC4/messageTimerInterrupt.c **** {
  66              		.loc 1 84 0
  67              		.cfi_startproc
  68 0000 80B5     		push	{r7, lr}
  69              	.LCFI2:
  70              		.cfi_def_cfa_offset 8
  71              		.cfi_offset 7, -8
  72              		.cfi_offset 14, -4
  73 0002 82B0     		sub	sp, sp, #8
  74              	.LCFI3:
  75              		.cfi_def_cfa_offset 16
  76 0004 00AF     		add	r7, sp, #0
  77              	.LCFI4:
  78              		.cfi_def_cfa_register 7
  79 0006 7860     		str	r0, [r7, #4]
  85:.\Generated_Source\PSoC4/messageTimerInterrupt.c ****     /* For all we know the interrupt is active. */
  86:.\Generated_Source\PSoC4/messageTimerInterrupt.c ****     messageTimerInterrupt_Disable();
  80              		.loc 1 86 0
  81 0008 FFF7FEFF 		bl	messageTimerInterrupt_Disable
  87:.\Generated_Source\PSoC4/messageTimerInterrupt.c **** 
  88:.\Generated_Source\PSoC4/messageTimerInterrupt.c ****     /* Set the ISR to point to the messageTimerInterrupt Interrupt. */
  89:.\Generated_Source\PSoC4/messageTimerInterrupt.c ****     messageTimerInterrupt_SetVector(address);
  82              		.loc 1 89 0
ARM GAS  C:\Users\Sam\AppData\Local\Temp\ccFNtiZ6.s 			page 4


  83 000c 7B68     		ldr	r3, [r7, #4]
  84 000e 181C     		mov	r0, r3
  85 0010 FFF7FEFF 		bl	messageTimerInterrupt_SetVector
  90:.\Generated_Source\PSoC4/messageTimerInterrupt.c **** 
  91:.\Generated_Source\PSoC4/messageTimerInterrupt.c ****     /* Set the priority. */
  92:.\Generated_Source\PSoC4/messageTimerInterrupt.c ****     messageTimerInterrupt_SetPriority((uint8)messageTimerInterrupt_INTC_PRIOR_NUMBER);
  86              		.loc 1 92 0
  87 0014 0120     		mov	r0, #1
  88 0016 FFF7FEFF 		bl	messageTimerInterrupt_SetPriority
  93:.\Generated_Source\PSoC4/messageTimerInterrupt.c **** 
  94:.\Generated_Source\PSoC4/messageTimerInterrupt.c ****     /* Enable it. */
  95:.\Generated_Source\PSoC4/messageTimerInterrupt.c ****     messageTimerInterrupt_Enable();
  89              		.loc 1 95 0
  90 001a FFF7FEFF 		bl	messageTimerInterrupt_Enable
  96:.\Generated_Source\PSoC4/messageTimerInterrupt.c **** }
  91              		.loc 1 96 0
  92 001e BD46     		mov	sp, r7
  93 0020 02B0     		add	sp, sp, #8
  94              		@ sp needed for prologue
  95 0022 80BD     		pop	{r7, pc}
  96              		.cfi_endproc
  97              	.LFE1:
  98              		.size	messageTimerInterrupt_StartEx, .-messageTimerInterrupt_StartEx
  99              		.section	.text.messageTimerInterrupt_Stop,"ax",%progbits
 100              		.align	2
 101              		.global	messageTimerInterrupt_Stop
 102              		.code	16
 103              		.thumb_func
 104              		.type	messageTimerInterrupt_Stop, %function
 105              	messageTimerInterrupt_Stop:
 106              	.LFB2:
  97:.\Generated_Source\PSoC4/messageTimerInterrupt.c **** 
  98:.\Generated_Source\PSoC4/messageTimerInterrupt.c **** 
  99:.\Generated_Source\PSoC4/messageTimerInterrupt.c **** /*******************************************************************************
 100:.\Generated_Source\PSoC4/messageTimerInterrupt.c **** * Function Name: messageTimerInterrupt_Stop
 101:.\Generated_Source\PSoC4/messageTimerInterrupt.c **** ********************************************************************************
 102:.\Generated_Source\PSoC4/messageTimerInterrupt.c **** *
 103:.\Generated_Source\PSoC4/messageTimerInterrupt.c **** * Summary:
 104:.\Generated_Source\PSoC4/messageTimerInterrupt.c **** *   Disables and removes the interrupt.
 105:.\Generated_Source\PSoC4/messageTimerInterrupt.c **** *
 106:.\Generated_Source\PSoC4/messageTimerInterrupt.c **** * Parameters:  
 107:.\Generated_Source\PSoC4/messageTimerInterrupt.c **** *
 108:.\Generated_Source\PSoC4/messageTimerInterrupt.c **** * Return:
 109:.\Generated_Source\PSoC4/messageTimerInterrupt.c **** *   None
 110:.\Generated_Source\PSoC4/messageTimerInterrupt.c **** *
 111:.\Generated_Source\PSoC4/messageTimerInterrupt.c **** *******************************************************************************/
 112:.\Generated_Source\PSoC4/messageTimerInterrupt.c **** void messageTimerInterrupt_Stop(void)
 113:.\Generated_Source\PSoC4/messageTimerInterrupt.c **** {
 107              		.loc 1 113 0
 108              		.cfi_startproc
 109 0000 80B5     		push	{r7, lr}
 110              	.LCFI5:
 111              		.cfi_def_cfa_offset 8
 112              		.cfi_offset 7, -8
 113              		.cfi_offset 14, -4
 114 0002 00AF     		add	r7, sp, #0
 115              	.LCFI6:
ARM GAS  C:\Users\Sam\AppData\Local\Temp\ccFNtiZ6.s 			page 5


 116              		.cfi_def_cfa_register 7
 114:.\Generated_Source\PSoC4/messageTimerInterrupt.c ****     /* Disable this interrupt. */
 115:.\Generated_Source\PSoC4/messageTimerInterrupt.c ****     messageTimerInterrupt_Disable();
 117              		.loc 1 115 0
 118 0004 FFF7FEFF 		bl	messageTimerInterrupt_Disable
 116:.\Generated_Source\PSoC4/messageTimerInterrupt.c **** 
 117:.\Generated_Source\PSoC4/messageTimerInterrupt.c ****     /* Set the ISR to point to the passive one. */
 118:.\Generated_Source\PSoC4/messageTimerInterrupt.c ****     messageTimerInterrupt_SetVector(&IntDefaultHandler);
 119              		.loc 1 118 0
 120 0008 024B     		ldr	r3, .L6
 121 000a 181C     		mov	r0, r3
 122 000c FFF7FEFF 		bl	messageTimerInterrupt_SetVector
 119:.\Generated_Source\PSoC4/messageTimerInterrupt.c **** }
 123              		.loc 1 119 0
 124 0010 BD46     		mov	sp, r7
 125              		@ sp needed for prologue
 126 0012 80BD     		pop	{r7, pc}
 127              	.L7:
 128              		.align	2
 129              	.L6:
 130 0014 00000000 		.word	IntDefaultHandler
 131              		.cfi_endproc
 132              	.LFE2:
 133              		.size	messageTimerInterrupt_Stop, .-messageTimerInterrupt_Stop
 134              		.section	.text.messageTimerInterrupt_Interrupt,"ax",%progbits
 135              		.align	2
 136              		.global	messageTimerInterrupt_Interrupt
 137              		.code	16
 138              		.thumb_func
 139              		.type	messageTimerInterrupt_Interrupt, %function
 140              	messageTimerInterrupt_Interrupt:
 141              	.LFB3:
 120:.\Generated_Source\PSoC4/messageTimerInterrupt.c **** 
 121:.\Generated_Source\PSoC4/messageTimerInterrupt.c **** 
 122:.\Generated_Source\PSoC4/messageTimerInterrupt.c **** /*******************************************************************************
 123:.\Generated_Source\PSoC4/messageTimerInterrupt.c **** * Function Name: messageTimerInterrupt_Interrupt
 124:.\Generated_Source\PSoC4/messageTimerInterrupt.c **** ********************************************************************************
 125:.\Generated_Source\PSoC4/messageTimerInterrupt.c **** *
 126:.\Generated_Source\PSoC4/messageTimerInterrupt.c **** * Summary:
 127:.\Generated_Source\PSoC4/messageTimerInterrupt.c **** *   The default Interrupt Service Routine for messageTimerInterrupt.
 128:.\Generated_Source\PSoC4/messageTimerInterrupt.c **** *
 129:.\Generated_Source\PSoC4/messageTimerInterrupt.c **** *   Add custom code between the coments to keep the next version of this file
 130:.\Generated_Source\PSoC4/messageTimerInterrupt.c **** *   from over writting your code.
 131:.\Generated_Source\PSoC4/messageTimerInterrupt.c **** *
 132:.\Generated_Source\PSoC4/messageTimerInterrupt.c **** * Parameters:  
 133:.\Generated_Source\PSoC4/messageTimerInterrupt.c **** *   None
 134:.\Generated_Source\PSoC4/messageTimerInterrupt.c **** *
 135:.\Generated_Source\PSoC4/messageTimerInterrupt.c **** * Return:
 136:.\Generated_Source\PSoC4/messageTimerInterrupt.c **** *   None
 137:.\Generated_Source\PSoC4/messageTimerInterrupt.c **** *
 138:.\Generated_Source\PSoC4/messageTimerInterrupt.c **** *******************************************************************************/
 139:.\Generated_Source\PSoC4/messageTimerInterrupt.c **** CY_ISR(messageTimerInterrupt_Interrupt)
 140:.\Generated_Source\PSoC4/messageTimerInterrupt.c **** {
 142              		.loc 1 140 0
 143              		.cfi_startproc
 144 0000 80B5     		push	{r7, lr}
 145              	.LCFI7:
ARM GAS  C:\Users\Sam\AppData\Local\Temp\ccFNtiZ6.s 			page 6


 146              		.cfi_def_cfa_offset 8
 147              		.cfi_offset 7, -8
 148              		.cfi_offset 14, -4
 149 0002 00AF     		add	r7, sp, #0
 150              	.LCFI8:
 151              		.cfi_def_cfa_register 7
 141:.\Generated_Source\PSoC4/messageTimerInterrupt.c ****     /*  Place your Interrupt code here. */
 142:.\Generated_Source\PSoC4/messageTimerInterrupt.c ****     /* `#START messageTimerInterrupt_Interrupt` */
 143:.\Generated_Source\PSoC4/messageTimerInterrupt.c **** 
 144:.\Generated_Source\PSoC4/messageTimerInterrupt.c ****     /* `#END` */
 145:.\Generated_Source\PSoC4/messageTimerInterrupt.c **** }
 152              		.loc 1 145 0
 153 0004 BD46     		mov	sp, r7
 154              		@ sp needed for prologue
 155 0006 80BD     		pop	{r7, pc}
 156              		.cfi_endproc
 157              	.LFE3:
 158              		.size	messageTimerInterrupt_Interrupt, .-messageTimerInterrupt_Interrupt
 159              		.section	.text.messageTimerInterrupt_SetVector,"ax",%progbits
 160              		.align	2
 161              		.global	messageTimerInterrupt_SetVector
 162              		.code	16
 163              		.thumb_func
 164              		.type	messageTimerInterrupt_SetVector, %function
 165              	messageTimerInterrupt_SetVector:
 166              	.LFB4:
 146:.\Generated_Source\PSoC4/messageTimerInterrupt.c **** 
 147:.\Generated_Source\PSoC4/messageTimerInterrupt.c **** 
 148:.\Generated_Source\PSoC4/messageTimerInterrupt.c **** /*******************************************************************************
 149:.\Generated_Source\PSoC4/messageTimerInterrupt.c **** * Function Name: messageTimerInterrupt_SetVector
 150:.\Generated_Source\PSoC4/messageTimerInterrupt.c **** ********************************************************************************
 151:.\Generated_Source\PSoC4/messageTimerInterrupt.c **** *
 152:.\Generated_Source\PSoC4/messageTimerInterrupt.c **** * Summary:
 153:.\Generated_Source\PSoC4/messageTimerInterrupt.c **** *   Change the ISR vector for the Interrupt. Note calling messageTimerInterrupt_Start
 154:.\Generated_Source\PSoC4/messageTimerInterrupt.c **** *   will override any effect this method would have had. To set the vector 
 155:.\Generated_Source\PSoC4/messageTimerInterrupt.c **** *   before the component has been started use messageTimerInterrupt_StartEx instead.
 156:.\Generated_Source\PSoC4/messageTimerInterrupt.c **** *
 157:.\Generated_Source\PSoC4/messageTimerInterrupt.c **** * Parameters:
 158:.\Generated_Source\PSoC4/messageTimerInterrupt.c **** *   address: Address of the ISR to set in the interrupt vector table.
 159:.\Generated_Source\PSoC4/messageTimerInterrupt.c **** *
 160:.\Generated_Source\PSoC4/messageTimerInterrupt.c **** * Return:
 161:.\Generated_Source\PSoC4/messageTimerInterrupt.c **** *   None
 162:.\Generated_Source\PSoC4/messageTimerInterrupt.c **** *
 163:.\Generated_Source\PSoC4/messageTimerInterrupt.c **** *******************************************************************************/
 164:.\Generated_Source\PSoC4/messageTimerInterrupt.c **** void messageTimerInterrupt_SetVector(cyisraddress address)
 165:.\Generated_Source\PSoC4/messageTimerInterrupt.c **** {
 167              		.loc 1 165 0
 168              		.cfi_startproc
 169 0000 80B5     		push	{r7, lr}
 170              	.LCFI9:
 171              		.cfi_def_cfa_offset 8
 172              		.cfi_offset 7, -8
 173              		.cfi_offset 14, -4
 174 0002 82B0     		sub	sp, sp, #8
 175              	.LCFI10:
 176              		.cfi_def_cfa_offset 16
 177 0004 00AF     		add	r7, sp, #0
ARM GAS  C:\Users\Sam\AppData\Local\Temp\ccFNtiZ6.s 			page 7


 178              	.LCFI11:
 179              		.cfi_def_cfa_register 7
 180 0006 7860     		str	r0, [r7, #4]
 166:.\Generated_Source\PSoC4/messageTimerInterrupt.c ****     CyRamVectors[CYINT_IRQ_BASE + messageTimerInterrupt__INTC_NUMBER] = address;
 181              		.loc 1 166 0
 182 0008 034A     		ldr	r2, .L10
 183 000a 8023     		mov	r3, #128
 184 000c 7968     		ldr	r1, [r7, #4]
 185 000e D150     		str	r1, [r2, r3]
 167:.\Generated_Source\PSoC4/messageTimerInterrupt.c **** }
 186              		.loc 1 167 0
 187 0010 BD46     		mov	sp, r7
 188 0012 02B0     		add	sp, sp, #8
 189              		@ sp needed for prologue
 190 0014 80BD     		pop	{r7, pc}
 191              	.L11:
 192 0016 C046     		.align	2
 193              	.L10:
 194 0018 00000000 		.word	CyRamVectors
 195              		.cfi_endproc
 196              	.LFE4:
 197              		.size	messageTimerInterrupt_SetVector, .-messageTimerInterrupt_SetVector
 198              		.section	.text.messageTimerInterrupt_GetVector,"ax",%progbits
 199              		.align	2
 200              		.global	messageTimerInterrupt_GetVector
 201              		.code	16
 202              		.thumb_func
 203              		.type	messageTimerInterrupt_GetVector, %function
 204              	messageTimerInterrupt_GetVector:
 205              	.LFB5:
 168:.\Generated_Source\PSoC4/messageTimerInterrupt.c **** 
 169:.\Generated_Source\PSoC4/messageTimerInterrupt.c **** 
 170:.\Generated_Source\PSoC4/messageTimerInterrupt.c **** /*******************************************************************************
 171:.\Generated_Source\PSoC4/messageTimerInterrupt.c **** * Function Name: messageTimerInterrupt_GetVector
 172:.\Generated_Source\PSoC4/messageTimerInterrupt.c **** ********************************************************************************
 173:.\Generated_Source\PSoC4/messageTimerInterrupt.c **** *
 174:.\Generated_Source\PSoC4/messageTimerInterrupt.c **** * Summary:
 175:.\Generated_Source\PSoC4/messageTimerInterrupt.c **** *   Gets the "address" of the current ISR vector for the Interrupt.
 176:.\Generated_Source\PSoC4/messageTimerInterrupt.c **** *
 177:.\Generated_Source\PSoC4/messageTimerInterrupt.c **** * Parameters:
 178:.\Generated_Source\PSoC4/messageTimerInterrupt.c **** *   None
 179:.\Generated_Source\PSoC4/messageTimerInterrupt.c **** *
 180:.\Generated_Source\PSoC4/messageTimerInterrupt.c **** * Return:
 181:.\Generated_Source\PSoC4/messageTimerInterrupt.c **** *   Address of the ISR in the interrupt vector table.
 182:.\Generated_Source\PSoC4/messageTimerInterrupt.c **** *
 183:.\Generated_Source\PSoC4/messageTimerInterrupt.c **** *******************************************************************************/
 184:.\Generated_Source\PSoC4/messageTimerInterrupt.c **** cyisraddress messageTimerInterrupt_GetVector(void)
 185:.\Generated_Source\PSoC4/messageTimerInterrupt.c **** {
 206              		.loc 1 185 0
 207              		.cfi_startproc
 208 0000 80B5     		push	{r7, lr}
 209              	.LCFI12:
 210              		.cfi_def_cfa_offset 8
 211              		.cfi_offset 7, -8
 212              		.cfi_offset 14, -4
 213 0002 00AF     		add	r7, sp, #0
 214              	.LCFI13:
ARM GAS  C:\Users\Sam\AppData\Local\Temp\ccFNtiZ6.s 			page 8


 215              		.cfi_def_cfa_register 7
 186:.\Generated_Source\PSoC4/messageTimerInterrupt.c ****     return CyRamVectors[CYINT_IRQ_BASE + messageTimerInterrupt__INTC_NUMBER];
 216              		.loc 1 186 0
 217 0004 024A     		ldr	r2, .L14
 218 0006 8023     		mov	r3, #128
 219 0008 D358     		ldr	r3, [r2, r3]
 187:.\Generated_Source\PSoC4/messageTimerInterrupt.c **** }
 220              		.loc 1 187 0
 221 000a 181C     		mov	r0, r3
 222 000c BD46     		mov	sp, r7
 223              		@ sp needed for prologue
 224 000e 80BD     		pop	{r7, pc}
 225              	.L15:
 226              		.align	2
 227              	.L14:
 228 0010 00000000 		.word	CyRamVectors
 229              		.cfi_endproc
 230              	.LFE5:
 231              		.size	messageTimerInterrupt_GetVector, .-messageTimerInterrupt_GetVector
 232              		.section	.text.messageTimerInterrupt_SetPriority,"ax",%progbits
 233              		.align	2
 234              		.global	messageTimerInterrupt_SetPriority
 235              		.code	16
 236              		.thumb_func
 237              		.type	messageTimerInterrupt_SetPriority, %function
 238              	messageTimerInterrupt_SetPriority:
 239              	.LFB6:
 188:.\Generated_Source\PSoC4/messageTimerInterrupt.c **** 
 189:.\Generated_Source\PSoC4/messageTimerInterrupt.c **** 
 190:.\Generated_Source\PSoC4/messageTimerInterrupt.c **** /*******************************************************************************
 191:.\Generated_Source\PSoC4/messageTimerInterrupt.c **** * Function Name: messageTimerInterrupt_SetPriority
 192:.\Generated_Source\PSoC4/messageTimerInterrupt.c **** ********************************************************************************
 193:.\Generated_Source\PSoC4/messageTimerInterrupt.c **** *
 194:.\Generated_Source\PSoC4/messageTimerInterrupt.c **** * Summary:
 195:.\Generated_Source\PSoC4/messageTimerInterrupt.c **** *   Sets the Priority of the Interrupt. Note calling messageTimerInterrupt_Start
 196:.\Generated_Source\PSoC4/messageTimerInterrupt.c **** *   or messageTimerInterrupt_StartEx will override any effect this method would 
 197:.\Generated_Source\PSoC4/messageTimerInterrupt.c **** *   have had. This method should only be called after messageTimerInterrupt_Start or 
 198:.\Generated_Source\PSoC4/messageTimerInterrupt.c **** *   messageTimerInterrupt_StartEx has been called. To set the initial
 199:.\Generated_Source\PSoC4/messageTimerInterrupt.c **** *   priority for the component use the cydwr file in the tool.
 200:.\Generated_Source\PSoC4/messageTimerInterrupt.c **** *
 201:.\Generated_Source\PSoC4/messageTimerInterrupt.c **** * Parameters:
 202:.\Generated_Source\PSoC4/messageTimerInterrupt.c **** *   priority: Priority of the interrupt. 0 - 3, 0 being the highest.
 203:.\Generated_Source\PSoC4/messageTimerInterrupt.c **** *
 204:.\Generated_Source\PSoC4/messageTimerInterrupt.c **** * Return:
 205:.\Generated_Source\PSoC4/messageTimerInterrupt.c **** *   None
 206:.\Generated_Source\PSoC4/messageTimerInterrupt.c **** *
 207:.\Generated_Source\PSoC4/messageTimerInterrupt.c **** *******************************************************************************/
 208:.\Generated_Source\PSoC4/messageTimerInterrupt.c **** void messageTimerInterrupt_SetPriority(uint8 priority)
 209:.\Generated_Source\PSoC4/messageTimerInterrupt.c **** {
 240              		.loc 1 209 0
 241              		.cfi_startproc
 242 0000 90B5     		push	{r4, r7, lr}
 243              	.LCFI14:
 244              		.cfi_def_cfa_offset 12
 245              		.cfi_offset 4, -12
 246              		.cfi_offset 7, -8
 247              		.cfi_offset 14, -4
ARM GAS  C:\Users\Sam\AppData\Local\Temp\ccFNtiZ6.s 			page 9


 248 0002 85B0     		sub	sp, sp, #20
 249              	.LCFI15:
 250              		.cfi_def_cfa_offset 32
 251 0004 00AF     		add	r7, sp, #0
 252              	.LCFI16:
 253              		.cfi_def_cfa_register 7
 254 0006 021C     		mov	r2, r0
 255 0008 FB1D     		add	r3, r7, #7
 256 000a 1A70     		strb	r2, [r3]
 210:.\Generated_Source\PSoC4/messageTimerInterrupt.c **** 	uint8 interruptState;
 211:.\Generated_Source\PSoC4/messageTimerInterrupt.c ****     uint32 priorityOffset = ((messageTimerInterrupt__INTC_NUMBER % 4u) * 8u) + 6u;
 257              		.loc 1 211 0
 258 000c 0623     		mov	r3, #6
 259 000e FB60     		str	r3, [r7, #12]
 212:.\Generated_Source\PSoC4/messageTimerInterrupt.c ****     
 213:.\Generated_Source\PSoC4/messageTimerInterrupt.c **** 	interruptState = CyEnterCriticalSection();
 260              		.loc 1 213 0
 261 0010 3C1C     		mov	r4, r7
 262 0012 0B34     		add	r4, r4, #11
 263 0014 FFF7FEFF 		bl	CyEnterCriticalSection
 264 0018 031C     		mov	r3, r0
 265 001a 2370     		strb	r3, [r4]
 214:.\Generated_Source\PSoC4/messageTimerInterrupt.c ****     *messageTimerInterrupt_INTC_PRIOR = (*messageTimerInterrupt_INTC_PRIOR & (uint32)(~messageTimer
 266              		.loc 1 214 0
 267 001c 0B4B     		ldr	r3, .L17
 268 001e 0B4A     		ldr	r2, .L17
 269 0020 1268     		ldr	r2, [r2]
 270 0022 C021     		mov	r1, #192
 271 0024 101C     		mov	r0, r2
 272 0026 8843     		bic	r0, r1
 273 0028 011C     		mov	r1, r0
 215:.\Generated_Source\PSoC4/messageTimerInterrupt.c ****                                     ((uint32)priority << priorityOffset);
 274              		.loc 1 215 0
 275 002a FA1D     		add	r2, r7, #7
 276 002c 1078     		ldrb	r0, [r2]
 277 002e FA68     		ldr	r2, [r7, #12]
 278 0030 041C     		mov	r4, r0
 279 0032 9440     		lsl	r4, r4, r2
 280 0034 221C     		mov	r2, r4
 214:.\Generated_Source\PSoC4/messageTimerInterrupt.c ****     *messageTimerInterrupt_INTC_PRIOR = (*messageTimerInterrupt_INTC_PRIOR & (uint32)(~messageTimer
 281              		.loc 1 214 0
 282 0036 0A43     		orr	r2, r1
 283 0038 1A60     		str	r2, [r3]
 216:.\Generated_Source\PSoC4/messageTimerInterrupt.c **** 	CyExitCriticalSection(interruptState);
 284              		.loc 1 216 0
 285 003a 3B1C     		mov	r3, r7
 286 003c 0B33     		add	r3, r3, #11
 287 003e 1B78     		ldrb	r3, [r3]
 288 0040 181C     		mov	r0, r3
 289 0042 FFF7FEFF 		bl	CyExitCriticalSection
 217:.\Generated_Source\PSoC4/messageTimerInterrupt.c **** }
 290              		.loc 1 217 0
 291 0046 BD46     		mov	sp, r7
 292 0048 05B0     		add	sp, sp, #20
 293              		@ sp needed for prologue
 294 004a 90BD     		pop	{r4, r7, pc}
 295              	.L18:
ARM GAS  C:\Users\Sam\AppData\Local\Temp\ccFNtiZ6.s 			page 10


 296              		.align	2
 297              	.L17:
 298 004c 10E400E0 		.word	-536812528
 299              		.cfi_endproc
 300              	.LFE6:
 301              		.size	messageTimerInterrupt_SetPriority, .-messageTimerInterrupt_SetPriority
 302              		.section	.text.messageTimerInterrupt_GetPriority,"ax",%progbits
 303              		.align	2
 304              		.global	messageTimerInterrupt_GetPriority
 305              		.code	16
 306              		.thumb_func
 307              		.type	messageTimerInterrupt_GetPriority, %function
 308              	messageTimerInterrupt_GetPriority:
 309              	.LFB7:
 218:.\Generated_Source\PSoC4/messageTimerInterrupt.c **** 
 219:.\Generated_Source\PSoC4/messageTimerInterrupt.c **** 
 220:.\Generated_Source\PSoC4/messageTimerInterrupt.c **** /*******************************************************************************
 221:.\Generated_Source\PSoC4/messageTimerInterrupt.c **** * Function Name: messageTimerInterrupt_GetPriority
 222:.\Generated_Source\PSoC4/messageTimerInterrupt.c **** ********************************************************************************
 223:.\Generated_Source\PSoC4/messageTimerInterrupt.c **** *
 224:.\Generated_Source\PSoC4/messageTimerInterrupt.c **** * Summary:
 225:.\Generated_Source\PSoC4/messageTimerInterrupt.c **** *   Gets the Priority of the Interrupt.
 226:.\Generated_Source\PSoC4/messageTimerInterrupt.c **** *
 227:.\Generated_Source\PSoC4/messageTimerInterrupt.c **** * Parameters:
 228:.\Generated_Source\PSoC4/messageTimerInterrupt.c **** *   None
 229:.\Generated_Source\PSoC4/messageTimerInterrupt.c **** *
 230:.\Generated_Source\PSoC4/messageTimerInterrupt.c **** * Return:
 231:.\Generated_Source\PSoC4/messageTimerInterrupt.c **** *   Priority of the interrupt. 0 - 3, 0 being the highest.
 232:.\Generated_Source\PSoC4/messageTimerInterrupt.c **** *
 233:.\Generated_Source\PSoC4/messageTimerInterrupt.c **** *******************************************************************************/
 234:.\Generated_Source\PSoC4/messageTimerInterrupt.c **** uint8 messageTimerInterrupt_GetPriority(void)
 235:.\Generated_Source\PSoC4/messageTimerInterrupt.c **** {
 310              		.loc 1 235 0
 311              		.cfi_startproc
 312 0000 80B5     		push	{r7, lr}
 313              	.LCFI17:
 314              		.cfi_def_cfa_offset 8
 315              		.cfi_offset 7, -8
 316              		.cfi_offset 14, -4
 317 0002 82B0     		sub	sp, sp, #8
 318              	.LCFI18:
 319              		.cfi_def_cfa_offset 16
 320 0004 00AF     		add	r7, sp, #0
 321              	.LCFI19:
 322              		.cfi_def_cfa_register 7
 236:.\Generated_Source\PSoC4/messageTimerInterrupt.c ****     uint32 priority;
 237:.\Generated_Source\PSoC4/messageTimerInterrupt.c **** 	uint32 priorityOffset = ((messageTimerInterrupt__INTC_NUMBER % 4u) * 8u) + 6u;
 323              		.loc 1 237 0
 324 0006 0623     		mov	r3, #6
 325 0008 7B60     		str	r3, [r7, #4]
 238:.\Generated_Source\PSoC4/messageTimerInterrupt.c **** 
 239:.\Generated_Source\PSoC4/messageTimerInterrupt.c ****     priority = (*messageTimerInterrupt_INTC_PRIOR & messageTimerInterrupt__INTC_PRIOR_MASK) >> prio
 326              		.loc 1 239 0
 327 000a 074B     		ldr	r3, .L21
 328 000c 1A68     		ldr	r2, [r3]
 329 000e C023     		mov	r3, #192
 330 0010 1A40     		and	r2, r3
ARM GAS  C:\Users\Sam\AppData\Local\Temp\ccFNtiZ6.s 			page 11


 331 0012 7B68     		ldr	r3, [r7, #4]
 332 0014 111C     		mov	r1, r2
 333 0016 D940     		lsr	r1, r1, r3
 334 0018 0B1C     		mov	r3, r1
 335 001a 3B60     		str	r3, [r7]
 240:.\Generated_Source\PSoC4/messageTimerInterrupt.c **** 
 241:.\Generated_Source\PSoC4/messageTimerInterrupt.c ****     return (uint8)priority;
 336              		.loc 1 241 0
 337 001c 3B68     		ldr	r3, [r7]
 338 001e DBB2     		uxtb	r3, r3
 242:.\Generated_Source\PSoC4/messageTimerInterrupt.c **** }
 339              		.loc 1 242 0
 340 0020 181C     		mov	r0, r3
 341 0022 BD46     		mov	sp, r7
 342 0024 02B0     		add	sp, sp, #8
 343              		@ sp needed for prologue
 344 0026 80BD     		pop	{r7, pc}
 345              	.L22:
 346              		.align	2
 347              	.L21:
 348 0028 10E400E0 		.word	-536812528
 349              		.cfi_endproc
 350              	.LFE7:
 351              		.size	messageTimerInterrupt_GetPriority, .-messageTimerInterrupt_GetPriority
 352              		.section	.text.messageTimerInterrupt_Enable,"ax",%progbits
 353              		.align	2
 354              		.global	messageTimerInterrupt_Enable
 355              		.code	16
 356              		.thumb_func
 357              		.type	messageTimerInterrupt_Enable, %function
 358              	messageTimerInterrupt_Enable:
 359              	.LFB8:
 243:.\Generated_Source\PSoC4/messageTimerInterrupt.c **** 
 244:.\Generated_Source\PSoC4/messageTimerInterrupt.c **** 
 245:.\Generated_Source\PSoC4/messageTimerInterrupt.c **** /*******************************************************************************
 246:.\Generated_Source\PSoC4/messageTimerInterrupt.c **** * Function Name: messageTimerInterrupt_Enable
 247:.\Generated_Source\PSoC4/messageTimerInterrupt.c **** ********************************************************************************
 248:.\Generated_Source\PSoC4/messageTimerInterrupt.c **** *
 249:.\Generated_Source\PSoC4/messageTimerInterrupt.c **** * Summary:
 250:.\Generated_Source\PSoC4/messageTimerInterrupt.c **** *   Enables the interrupt.
 251:.\Generated_Source\PSoC4/messageTimerInterrupt.c **** *
 252:.\Generated_Source\PSoC4/messageTimerInterrupt.c **** * Parameters:
 253:.\Generated_Source\PSoC4/messageTimerInterrupt.c **** *   None
 254:.\Generated_Source\PSoC4/messageTimerInterrupt.c **** *
 255:.\Generated_Source\PSoC4/messageTimerInterrupt.c **** * Return:
 256:.\Generated_Source\PSoC4/messageTimerInterrupt.c **** *   None
 257:.\Generated_Source\PSoC4/messageTimerInterrupt.c **** *
 258:.\Generated_Source\PSoC4/messageTimerInterrupt.c **** *******************************************************************************/
 259:.\Generated_Source\PSoC4/messageTimerInterrupt.c **** void messageTimerInterrupt_Enable(void)
 260:.\Generated_Source\PSoC4/messageTimerInterrupt.c **** {
 360              		.loc 1 260 0
 361              		.cfi_startproc
 362 0000 80B5     		push	{r7, lr}
 363              	.LCFI20:
 364              		.cfi_def_cfa_offset 8
 365              		.cfi_offset 7, -8
 366              		.cfi_offset 14, -4
ARM GAS  C:\Users\Sam\AppData\Local\Temp\ccFNtiZ6.s 			page 12


 367 0002 00AF     		add	r7, sp, #0
 368              	.LCFI21:
 369              		.cfi_def_cfa_register 7
 261:.\Generated_Source\PSoC4/messageTimerInterrupt.c ****     /* Enable the general interrupt. */
 262:.\Generated_Source\PSoC4/messageTimerInterrupt.c ****     *messageTimerInterrupt_INTC_SET_EN = messageTimerInterrupt__INTC_MASK;
 370              		.loc 1 262 0
 371 0004 024B     		ldr	r3, .L24
 372 0006 8022     		mov	r2, #128
 373 0008 5202     		lsl	r2, r2, #9
 374 000a 1A60     		str	r2, [r3]
 263:.\Generated_Source\PSoC4/messageTimerInterrupt.c **** }
 375              		.loc 1 263 0
 376 000c BD46     		mov	sp, r7
 377              		@ sp needed for prologue
 378 000e 80BD     		pop	{r7, pc}
 379              	.L25:
 380              		.align	2
 381              	.L24:
 382 0010 00E100E0 		.word	-536813312
 383              		.cfi_endproc
 384              	.LFE8:
 385              		.size	messageTimerInterrupt_Enable, .-messageTimerInterrupt_Enable
 386              		.section	.text.messageTimerInterrupt_GetState,"ax",%progbits
 387              		.align	2
 388              		.global	messageTimerInterrupt_GetState
 389              		.code	16
 390              		.thumb_func
 391              		.type	messageTimerInterrupt_GetState, %function
 392              	messageTimerInterrupt_GetState:
 393              	.LFB9:
 264:.\Generated_Source\PSoC4/messageTimerInterrupt.c **** 
 265:.\Generated_Source\PSoC4/messageTimerInterrupt.c **** 
 266:.\Generated_Source\PSoC4/messageTimerInterrupt.c **** /*******************************************************************************
 267:.\Generated_Source\PSoC4/messageTimerInterrupt.c **** * Function Name: messageTimerInterrupt_GetState
 268:.\Generated_Source\PSoC4/messageTimerInterrupt.c **** ********************************************************************************
 269:.\Generated_Source\PSoC4/messageTimerInterrupt.c **** *
 270:.\Generated_Source\PSoC4/messageTimerInterrupt.c **** * Summary:
 271:.\Generated_Source\PSoC4/messageTimerInterrupt.c **** *   Gets the state (enabled, disabled) of the Interrupt.
 272:.\Generated_Source\PSoC4/messageTimerInterrupt.c **** *
 273:.\Generated_Source\PSoC4/messageTimerInterrupt.c **** * Parameters:
 274:.\Generated_Source\PSoC4/messageTimerInterrupt.c **** *   None
 275:.\Generated_Source\PSoC4/messageTimerInterrupt.c **** *
 276:.\Generated_Source\PSoC4/messageTimerInterrupt.c **** * Return:
 277:.\Generated_Source\PSoC4/messageTimerInterrupt.c **** *   1 if enabled, 0 if disabled.
 278:.\Generated_Source\PSoC4/messageTimerInterrupt.c **** *
 279:.\Generated_Source\PSoC4/messageTimerInterrupt.c **** *******************************************************************************/
 280:.\Generated_Source\PSoC4/messageTimerInterrupt.c **** uint8 messageTimerInterrupt_GetState(void)
 281:.\Generated_Source\PSoC4/messageTimerInterrupt.c **** {
 394              		.loc 1 281 0
 395              		.cfi_startproc
 396 0000 80B5     		push	{r7, lr}
 397              	.LCFI22:
 398              		.cfi_def_cfa_offset 8
 399              		.cfi_offset 7, -8
 400              		.cfi_offset 14, -4
 401 0002 00AF     		add	r7, sp, #0
 402              	.LCFI23:
ARM GAS  C:\Users\Sam\AppData\Local\Temp\ccFNtiZ6.s 			page 13


 403              		.cfi_def_cfa_register 7
 282:.\Generated_Source\PSoC4/messageTimerInterrupt.c ****     /* Get the state of the general interrupt. */
 283:.\Generated_Source\PSoC4/messageTimerInterrupt.c ****     return ((*messageTimerInterrupt_INTC_SET_EN & (uint32)messageTimerInterrupt__INTC_MASK) != 0u) 
 404              		.loc 1 283 0
 405 0004 054B     		ldr	r3, .L30
 406 0006 1A68     		ldr	r2, [r3]
 407 0008 8023     		mov	r3, #128
 408 000a 5B02     		lsl	r3, r3, #9
 409 000c 1340     		and	r3, r2
 410 000e 01D0     		beq	.L27
 411              		.loc 1 283 0 is_stmt 0 discriminator 1
 412 0010 0123     		mov	r3, #1
 413 0012 00E0     		b	.L28
 414              	.L27:
 415              		.loc 1 283 0 discriminator 2
 416 0014 0023     		mov	r3, #0
 417              	.L28:
 284:.\Generated_Source\PSoC4/messageTimerInterrupt.c **** }
 418              		.loc 1 284 0 is_stmt 1 discriminator 3
 419 0016 181C     		mov	r0, r3
 420 0018 BD46     		mov	sp, r7
 421              		@ sp needed for prologue
 422 001a 80BD     		pop	{r7, pc}
 423              	.L31:
 424              		.align	2
 425              	.L30:
 426 001c 00E100E0 		.word	-536813312
 427              		.cfi_endproc
 428              	.LFE9:
 429              		.size	messageTimerInterrupt_GetState, .-messageTimerInterrupt_GetState
 430              		.section	.text.messageTimerInterrupt_Disable,"ax",%progbits
 431              		.align	2
 432              		.global	messageTimerInterrupt_Disable
 433              		.code	16
 434              		.thumb_func
 435              		.type	messageTimerInterrupt_Disable, %function
 436              	messageTimerInterrupt_Disable:
 437              	.LFB10:
 285:.\Generated_Source\PSoC4/messageTimerInterrupt.c **** 
 286:.\Generated_Source\PSoC4/messageTimerInterrupt.c **** 
 287:.\Generated_Source\PSoC4/messageTimerInterrupt.c **** /*******************************************************************************
 288:.\Generated_Source\PSoC4/messageTimerInterrupt.c **** * Function Name: messageTimerInterrupt_Disable
 289:.\Generated_Source\PSoC4/messageTimerInterrupt.c **** ********************************************************************************
 290:.\Generated_Source\PSoC4/messageTimerInterrupt.c **** *
 291:.\Generated_Source\PSoC4/messageTimerInterrupt.c **** * Summary:
 292:.\Generated_Source\PSoC4/messageTimerInterrupt.c **** *   Disables the Interrupt.
 293:.\Generated_Source\PSoC4/messageTimerInterrupt.c **** *
 294:.\Generated_Source\PSoC4/messageTimerInterrupt.c **** * Parameters:
 295:.\Generated_Source\PSoC4/messageTimerInterrupt.c **** *   None
 296:.\Generated_Source\PSoC4/messageTimerInterrupt.c **** *
 297:.\Generated_Source\PSoC4/messageTimerInterrupt.c **** * Return:
 298:.\Generated_Source\PSoC4/messageTimerInterrupt.c **** *   None
 299:.\Generated_Source\PSoC4/messageTimerInterrupt.c **** *
 300:.\Generated_Source\PSoC4/messageTimerInterrupt.c **** *******************************************************************************/
 301:.\Generated_Source\PSoC4/messageTimerInterrupt.c **** void messageTimerInterrupt_Disable(void)
 302:.\Generated_Source\PSoC4/messageTimerInterrupt.c **** {
 438              		.loc 1 302 0
ARM GAS  C:\Users\Sam\AppData\Local\Temp\ccFNtiZ6.s 			page 14


 439              		.cfi_startproc
 440 0000 80B5     		push	{r7, lr}
 441              	.LCFI24:
 442              		.cfi_def_cfa_offset 8
 443              		.cfi_offset 7, -8
 444              		.cfi_offset 14, -4
 445 0002 00AF     		add	r7, sp, #0
 446              	.LCFI25:
 447              		.cfi_def_cfa_register 7
 303:.\Generated_Source\PSoC4/messageTimerInterrupt.c ****     /* Disable the general interrupt. */
 304:.\Generated_Source\PSoC4/messageTimerInterrupt.c ****     *messageTimerInterrupt_INTC_CLR_EN = messageTimerInterrupt__INTC_MASK;
 448              		.loc 1 304 0
 449 0004 024B     		ldr	r3, .L33
 450 0006 8022     		mov	r2, #128
 451 0008 5202     		lsl	r2, r2, #9
 452 000a 1A60     		str	r2, [r3]
 305:.\Generated_Source\PSoC4/messageTimerInterrupt.c **** }
 453              		.loc 1 305 0
 454 000c BD46     		mov	sp, r7
 455              		@ sp needed for prologue
 456 000e 80BD     		pop	{r7, pc}
 457              	.L34:
 458              		.align	2
 459              	.L33:
 460 0010 80E100E0 		.word	-536813184
 461              		.cfi_endproc
 462              	.LFE10:
 463              		.size	messageTimerInterrupt_Disable, .-messageTimerInterrupt_Disable
 464              		.section	.text.messageTimerInterrupt_SetPending,"ax",%progbits
 465              		.align	2
 466              		.global	messageTimerInterrupt_SetPending
 467              		.code	16
 468              		.thumb_func
 469              		.type	messageTimerInterrupt_SetPending, %function
 470              	messageTimerInterrupt_SetPending:
 471              	.LFB11:
 306:.\Generated_Source\PSoC4/messageTimerInterrupt.c **** 
 307:.\Generated_Source\PSoC4/messageTimerInterrupt.c **** 
 308:.\Generated_Source\PSoC4/messageTimerInterrupt.c **** /*******************************************************************************
 309:.\Generated_Source\PSoC4/messageTimerInterrupt.c **** * Function Name: messageTimerInterrupt_SetPending
 310:.\Generated_Source\PSoC4/messageTimerInterrupt.c **** ********************************************************************************
 311:.\Generated_Source\PSoC4/messageTimerInterrupt.c **** *
 312:.\Generated_Source\PSoC4/messageTimerInterrupt.c **** * Summary:
 313:.\Generated_Source\PSoC4/messageTimerInterrupt.c **** *   Causes the Interrupt to enter the pending state, a software method of
 314:.\Generated_Source\PSoC4/messageTimerInterrupt.c **** *   generating the interrupt.
 315:.\Generated_Source\PSoC4/messageTimerInterrupt.c **** *
 316:.\Generated_Source\PSoC4/messageTimerInterrupt.c **** * Parameters:
 317:.\Generated_Source\PSoC4/messageTimerInterrupt.c **** *   None
 318:.\Generated_Source\PSoC4/messageTimerInterrupt.c **** *
 319:.\Generated_Source\PSoC4/messageTimerInterrupt.c **** * Return:
 320:.\Generated_Source\PSoC4/messageTimerInterrupt.c **** *   None
 321:.\Generated_Source\PSoC4/messageTimerInterrupt.c **** *
 322:.\Generated_Source\PSoC4/messageTimerInterrupt.c **** *******************************************************************************/
 323:.\Generated_Source\PSoC4/messageTimerInterrupt.c **** void messageTimerInterrupt_SetPending(void)
 324:.\Generated_Source\PSoC4/messageTimerInterrupt.c **** {
 472              		.loc 1 324 0
 473              		.cfi_startproc
ARM GAS  C:\Users\Sam\AppData\Local\Temp\ccFNtiZ6.s 			page 15


 474 0000 80B5     		push	{r7, lr}
 475              	.LCFI26:
 476              		.cfi_def_cfa_offset 8
 477              		.cfi_offset 7, -8
 478              		.cfi_offset 14, -4
 479 0002 00AF     		add	r7, sp, #0
 480              	.LCFI27:
 481              		.cfi_def_cfa_register 7
 325:.\Generated_Source\PSoC4/messageTimerInterrupt.c ****     *messageTimerInterrupt_INTC_SET_PD = messageTimerInterrupt__INTC_MASK;
 482              		.loc 1 325 0
 483 0004 024B     		ldr	r3, .L36
 484 0006 8022     		mov	r2, #128
 485 0008 5202     		lsl	r2, r2, #9
 486 000a 1A60     		str	r2, [r3]
 326:.\Generated_Source\PSoC4/messageTimerInterrupt.c **** }
 487              		.loc 1 326 0
 488 000c BD46     		mov	sp, r7
 489              		@ sp needed for prologue
 490 000e 80BD     		pop	{r7, pc}
 491              	.L37:
 492              		.align	2
 493              	.L36:
 494 0010 00E200E0 		.word	-536813056
 495              		.cfi_endproc
 496              	.LFE11:
 497              		.size	messageTimerInterrupt_SetPending, .-messageTimerInterrupt_SetPending
 498              		.section	.text.messageTimerInterrupt_ClearPending,"ax",%progbits
 499              		.align	2
 500              		.global	messageTimerInterrupt_ClearPending
 501              		.code	16
 502              		.thumb_func
 503              		.type	messageTimerInterrupt_ClearPending, %function
 504              	messageTimerInterrupt_ClearPending:
 505              	.LFB12:
 327:.\Generated_Source\PSoC4/messageTimerInterrupt.c **** 
 328:.\Generated_Source\PSoC4/messageTimerInterrupt.c **** 
 329:.\Generated_Source\PSoC4/messageTimerInterrupt.c **** /*******************************************************************************
 330:.\Generated_Source\PSoC4/messageTimerInterrupt.c **** * Function Name: messageTimerInterrupt_ClearPending
 331:.\Generated_Source\PSoC4/messageTimerInterrupt.c **** ********************************************************************************
 332:.\Generated_Source\PSoC4/messageTimerInterrupt.c **** *
 333:.\Generated_Source\PSoC4/messageTimerInterrupt.c **** * Summary:
 334:.\Generated_Source\PSoC4/messageTimerInterrupt.c **** *   Clears a pending interrupt.
 335:.\Generated_Source\PSoC4/messageTimerInterrupt.c **** *
 336:.\Generated_Source\PSoC4/messageTimerInterrupt.c **** * Parameters:
 337:.\Generated_Source\PSoC4/messageTimerInterrupt.c **** *   None
 338:.\Generated_Source\PSoC4/messageTimerInterrupt.c **** *
 339:.\Generated_Source\PSoC4/messageTimerInterrupt.c **** * Return:
 340:.\Generated_Source\PSoC4/messageTimerInterrupt.c **** *   None
 341:.\Generated_Source\PSoC4/messageTimerInterrupt.c **** *
 342:.\Generated_Source\PSoC4/messageTimerInterrupt.c **** *******************************************************************************/
 343:.\Generated_Source\PSoC4/messageTimerInterrupt.c **** void messageTimerInterrupt_ClearPending(void)
 344:.\Generated_Source\PSoC4/messageTimerInterrupt.c **** {
 506              		.loc 1 344 0
 507              		.cfi_startproc
 508 0000 80B5     		push	{r7, lr}
 509              	.LCFI28:
 510              		.cfi_def_cfa_offset 8
ARM GAS  C:\Users\Sam\AppData\Local\Temp\ccFNtiZ6.s 			page 16


 511              		.cfi_offset 7, -8
 512              		.cfi_offset 14, -4
 513 0002 00AF     		add	r7, sp, #0
 514              	.LCFI29:
 515              		.cfi_def_cfa_register 7
 345:.\Generated_Source\PSoC4/messageTimerInterrupt.c ****     *messageTimerInterrupt_INTC_CLR_PD = messageTimerInterrupt__INTC_MASK;
 516              		.loc 1 345 0
 517 0004 024B     		ldr	r3, .L39
 518 0006 8022     		mov	r2, #128
 519 0008 5202     		lsl	r2, r2, #9
 520 000a 1A60     		str	r2, [r3]
 346:.\Generated_Source\PSoC4/messageTimerInterrupt.c **** }
 521              		.loc 1 346 0
 522 000c BD46     		mov	sp, r7
 523              		@ sp needed for prologue
 524 000e 80BD     		pop	{r7, pc}
 525              	.L40:
 526              		.align	2
 527              	.L39:
 528 0010 80E200E0 		.word	-536812928
 529              		.cfi_endproc
 530              	.LFE12:
 531              		.size	messageTimerInterrupt_ClearPending, .-messageTimerInterrupt_ClearPending
 532              		.text
 533              	.Letext0:
 534              		.file 2 "./Generated_Source/PSoC4/cytypes.h"