ARM GAS  C:\Users\Sam\AppData\Local\Temp\ccPc0UXT.s 			page 1


   1              		.cpu cortex-m0
   2              		.fpu softvfp
   3              		.eabi_attribute 20, 1
   4              		.eabi_attribute 21, 1
   5              		.eabi_attribute 23, 3
   6              		.eabi_attribute 24, 1
   7              		.eabi_attribute 25, 1
   8              		.eabi_attribute 26, 1
   9              		.eabi_attribute 30, 6
  10              		.eabi_attribute 34, 0
  11              		.eabi_attribute 18, 4
  12              		.code	16
  13              		.file	"ModbusUART_UART.c"
  14              		.text
  15              	.Ltext0:
  16              		.cfi_sections	.debug_frame
  17              		.section	.text.ModbusUART_UartInit,"ax",%progbits
  18              		.align	2
  19              		.global	ModbusUART_UartInit
  20              		.code	16
  21              		.thumb_func
  22              		.type	ModbusUART_UartInit, %function
  23              	ModbusUART_UartInit:
  24              	.LFB0:
  25              		.file 1 ".\\Generated_Source\\PSoC4\\ModbusUART_UART.c"
   1:.\Generated_Source\PSoC4/ModbusUART_UART.c **** /*******************************************************************************
   2:.\Generated_Source\PSoC4/ModbusUART_UART.c **** * File Name: ModbusUART_UART.c
   3:.\Generated_Source\PSoC4/ModbusUART_UART.c **** * Version 1.10
   4:.\Generated_Source\PSoC4/ModbusUART_UART.c **** *
   5:.\Generated_Source\PSoC4/ModbusUART_UART.c **** * Description:
   6:.\Generated_Source\PSoC4/ModbusUART_UART.c **** *  This file provides the source code to the API for the SCB Component in
   7:.\Generated_Source\PSoC4/ModbusUART_UART.c **** *  UART mode.
   8:.\Generated_Source\PSoC4/ModbusUART_UART.c **** *
   9:.\Generated_Source\PSoC4/ModbusUART_UART.c **** * Note:
  10:.\Generated_Source\PSoC4/ModbusUART_UART.c **** *
  11:.\Generated_Source\PSoC4/ModbusUART_UART.c **** *******************************************************************************
  12:.\Generated_Source\PSoC4/ModbusUART_UART.c **** * Copyright 2013, Cypress Semiconductor Corporation.  All rights reserved.
  13:.\Generated_Source\PSoC4/ModbusUART_UART.c **** * You may use this file only in accordance with the license, terms, conditions,
  14:.\Generated_Source\PSoC4/ModbusUART_UART.c **** * disclaimers, and limitations in the end user license agreement accompanying
  15:.\Generated_Source\PSoC4/ModbusUART_UART.c **** * the software package with which this file was provided.
  16:.\Generated_Source\PSoC4/ModbusUART_UART.c **** *******************************************************************************/
  17:.\Generated_Source\PSoC4/ModbusUART_UART.c **** 
  18:.\Generated_Source\PSoC4/ModbusUART_UART.c **** #include "ModbusUART_PVT.h"
  19:.\Generated_Source\PSoC4/ModbusUART_UART.c **** #include "ModbusUART_SPI_UART_PVT.h"
  20:.\Generated_Source\PSoC4/ModbusUART_UART.c **** 
  21:.\Generated_Source\PSoC4/ModbusUART_UART.c **** 
  22:.\Generated_Source\PSoC4/ModbusUART_UART.c **** #if(ModbusUART_SCB_MODE_UNCONFIG_CONST_CFG)
  23:.\Generated_Source\PSoC4/ModbusUART_UART.c **** 
  24:.\Generated_Source\PSoC4/ModbusUART_UART.c ****     /***************************************
  25:.\Generated_Source\PSoC4/ModbusUART_UART.c ****     *  Config Structure Initialization
  26:.\Generated_Source\PSoC4/ModbusUART_UART.c ****     ***************************************/
  27:.\Generated_Source\PSoC4/ModbusUART_UART.c **** 
  28:.\Generated_Source\PSoC4/ModbusUART_UART.c ****     const ModbusUART_UART_INIT_STRUCT ModbusUART_configUart =
  29:.\Generated_Source\PSoC4/ModbusUART_UART.c ****     {
  30:.\Generated_Source\PSoC4/ModbusUART_UART.c ****         ModbusUART_UART_SUB_MODE,
  31:.\Generated_Source\PSoC4/ModbusUART_UART.c ****         ModbusUART_UART_DIRECTION,
  32:.\Generated_Source\PSoC4/ModbusUART_UART.c ****         ModbusUART_UART_DATA_BITS_NUM,
ARM GAS  C:\Users\Sam\AppData\Local\Temp\ccPc0UXT.s 			page 2


  33:.\Generated_Source\PSoC4/ModbusUART_UART.c ****         ModbusUART_UART_PARITY_TYPE,
  34:.\Generated_Source\PSoC4/ModbusUART_UART.c ****         ModbusUART_UART_STOP_BITS_NUM,
  35:.\Generated_Source\PSoC4/ModbusUART_UART.c ****         ModbusUART_UART_OVS_FACTOR,
  36:.\Generated_Source\PSoC4/ModbusUART_UART.c ****         ModbusUART_UART_IRDA_LOW_POWER,
  37:.\Generated_Source\PSoC4/ModbusUART_UART.c ****         ModbusUART_UART_MEDIAN_FILTER_ENABLE,
  38:.\Generated_Source\PSoC4/ModbusUART_UART.c ****         ModbusUART_UART_RETRY_ON_NACK,
  39:.\Generated_Source\PSoC4/ModbusUART_UART.c ****         ModbusUART_UART_IRDA_POLARITY,
  40:.\Generated_Source\PSoC4/ModbusUART_UART.c ****         ModbusUART_UART_DROP_ON_PARITY_ERR,
  41:.\Generated_Source\PSoC4/ModbusUART_UART.c ****         ModbusUART_UART_DROP_ON_FRAME_ERR,
  42:.\Generated_Source\PSoC4/ModbusUART_UART.c ****         ModbusUART_UART_WAKE_ENABLE,
  43:.\Generated_Source\PSoC4/ModbusUART_UART.c ****         0u,
  44:.\Generated_Source\PSoC4/ModbusUART_UART.c ****         NULL,
  45:.\Generated_Source\PSoC4/ModbusUART_UART.c ****         0u,
  46:.\Generated_Source\PSoC4/ModbusUART_UART.c ****         NULL,
  47:.\Generated_Source\PSoC4/ModbusUART_UART.c ****         ModbusUART_UART_MP_MODE_ENABLE,
  48:.\Generated_Source\PSoC4/ModbusUART_UART.c ****         ModbusUART_UART_MP_ACCEPT_ADDRESS,
  49:.\Generated_Source\PSoC4/ModbusUART_UART.c ****         ModbusUART_UART_MP_RX_ADDRESS,
  50:.\Generated_Source\PSoC4/ModbusUART_UART.c ****         ModbusUART_UART_MP_RX_ADDRESS_MASK,
  51:.\Generated_Source\PSoC4/ModbusUART_UART.c ****         ModbusUART_SCB_IRQ_INTERNAL,
  52:.\Generated_Source\PSoC4/ModbusUART_UART.c ****         ModbusUART_UART_INTR_RX_MASK,
  53:.\Generated_Source\PSoC4/ModbusUART_UART.c ****         ModbusUART_UART_RX_TRIGGER_LEVEL,
  54:.\Generated_Source\PSoC4/ModbusUART_UART.c ****         ModbusUART_UART_INTR_TX_MASK,
  55:.\Generated_Source\PSoC4/ModbusUART_UART.c ****         ModbusUART_UART_TX_TRIGGER_LEVEL
  56:.\Generated_Source\PSoC4/ModbusUART_UART.c ****     };
  57:.\Generated_Source\PSoC4/ModbusUART_UART.c **** 
  58:.\Generated_Source\PSoC4/ModbusUART_UART.c **** 
  59:.\Generated_Source\PSoC4/ModbusUART_UART.c ****     /*******************************************************************************
  60:.\Generated_Source\PSoC4/ModbusUART_UART.c ****     * Function Name: ModbusUART_UartInit
  61:.\Generated_Source\PSoC4/ModbusUART_UART.c ****     ********************************************************************************
  62:.\Generated_Source\PSoC4/ModbusUART_UART.c ****     *
  63:.\Generated_Source\PSoC4/ModbusUART_UART.c ****     * Summary:
  64:.\Generated_Source\PSoC4/ModbusUART_UART.c ****     *  Configures the SCB for SPI operation.
  65:.\Generated_Source\PSoC4/ModbusUART_UART.c ****     *
  66:.\Generated_Source\PSoC4/ModbusUART_UART.c ****     * Parameters:
  67:.\Generated_Source\PSoC4/ModbusUART_UART.c ****     *  config:  Pointer to a structure that contains the following ordered list of
  68:.\Generated_Source\PSoC4/ModbusUART_UART.c ****     *           fields. These fields match the selections available in the
  69:.\Generated_Source\PSoC4/ModbusUART_UART.c ****     *           customizer.
  70:.\Generated_Source\PSoC4/ModbusUART_UART.c ****     *
  71:.\Generated_Source\PSoC4/ModbusUART_UART.c ****     * Return:
  72:.\Generated_Source\PSoC4/ModbusUART_UART.c ****     *  None
  73:.\Generated_Source\PSoC4/ModbusUART_UART.c ****     *
  74:.\Generated_Source\PSoC4/ModbusUART_UART.c ****     *******************************************************************************/
  75:.\Generated_Source\PSoC4/ModbusUART_UART.c ****     void ModbusUART_UartInit(const ModbusUART_UART_INIT_STRUCT *config)
  76:.\Generated_Source\PSoC4/ModbusUART_UART.c ****     {
  77:.\Generated_Source\PSoC4/ModbusUART_UART.c ****         if(NULL == config)
  78:.\Generated_Source\PSoC4/ModbusUART_UART.c ****         {
  79:.\Generated_Source\PSoC4/ModbusUART_UART.c ****             CYASSERT(0u != 0u); /* Halt execution due bad fucntion parameter */
  80:.\Generated_Source\PSoC4/ModbusUART_UART.c ****         }
  81:.\Generated_Source\PSoC4/ModbusUART_UART.c ****         else
  82:.\Generated_Source\PSoC4/ModbusUART_UART.c ****         {
  83:.\Generated_Source\PSoC4/ModbusUART_UART.c ****             /* Configure pins */
  84:.\Generated_Source\PSoC4/ModbusUART_UART.c ****             ModbusUART_SetPins(ModbusUART_SCB_MODE_UART, config->mode, config->direction);
  85:.\Generated_Source\PSoC4/ModbusUART_UART.c **** 
  86:.\Generated_Source\PSoC4/ModbusUART_UART.c ****             /* Store internal configuration */
  87:.\Generated_Source\PSoC4/ModbusUART_UART.c ****             ModbusUART_scbMode       = (uint8) ModbusUART_SCB_MODE_UART;
  88:.\Generated_Source\PSoC4/ModbusUART_UART.c ****             ModbusUART_scbEnableWake = (uint8) config->enableWake;
  89:.\Generated_Source\PSoC4/ModbusUART_UART.c ****             ModbusUART_scbEnableIntr = (uint8) config->enableInterrupt;
ARM GAS  C:\Users\Sam\AppData\Local\Temp\ccPc0UXT.s 			page 3


  90:.\Generated_Source\PSoC4/ModbusUART_UART.c **** 
  91:.\Generated_Source\PSoC4/ModbusUART_UART.c ****             /* Set RX direction internal variables */
  92:.\Generated_Source\PSoC4/ModbusUART_UART.c ****             ModbusUART_rxBuffer      =         config->rxBuffer;
  93:.\Generated_Source\PSoC4/ModbusUART_UART.c ****             ModbusUART_rxDataBits    = (uint8) config->dataBits;
  94:.\Generated_Source\PSoC4/ModbusUART_UART.c ****             ModbusUART_rxBufferSize  = (uint8) config->rxBufferSize;
  95:.\Generated_Source\PSoC4/ModbusUART_UART.c **** 
  96:.\Generated_Source\PSoC4/ModbusUART_UART.c ****             /* Set TX direction internal variables */
  97:.\Generated_Source\PSoC4/ModbusUART_UART.c ****             ModbusUART_txBuffer      =         config->txBuffer;
  98:.\Generated_Source\PSoC4/ModbusUART_UART.c ****             ModbusUART_txDataBits    = (uint8) config->dataBits;
  99:.\Generated_Source\PSoC4/ModbusUART_UART.c ****             ModbusUART_txBufferSize  = (uint8) config->txBufferSize;
 100:.\Generated_Source\PSoC4/ModbusUART_UART.c **** 
 101:.\Generated_Source\PSoC4/ModbusUART_UART.c **** 
 102:.\Generated_Source\PSoC4/ModbusUART_UART.c ****             /* Configure UART interface */
 103:.\Generated_Source\PSoC4/ModbusUART_UART.c ****             if(ModbusUART_UART_MODE_IRDA == config->mode)
 104:.\Generated_Source\PSoC4/ModbusUART_UART.c ****             {
 105:.\Generated_Source\PSoC4/ModbusUART_UART.c ****                 /* OVS settigns: IrDA */
 106:.\Generated_Source\PSoC4/ModbusUART_UART.c ****                 ModbusUART_CTRL_REG  = ((0u != config->enableIrdaLowPower) ?
 107:.\Generated_Source\PSoC4/ModbusUART_UART.c ****                                                 (ModbusUART_UART_GET_CTRL_OVS_IRDA_LP(config->overs
 108:.\Generated_Source\PSoC4/ModbusUART_UART.c ****                                                 (ModbusUART_CTRL_OVS_IRDA_OVS16));
 109:.\Generated_Source\PSoC4/ModbusUART_UART.c ****             }
 110:.\Generated_Source\PSoC4/ModbusUART_UART.c ****             else
 111:.\Generated_Source\PSoC4/ModbusUART_UART.c ****             {
 112:.\Generated_Source\PSoC4/ModbusUART_UART.c ****                 /* OVS settigns: UART and SmartCard */
 113:.\Generated_Source\PSoC4/ModbusUART_UART.c ****                 ModbusUART_CTRL_REG  = ModbusUART_GET_CTRL_OVS(config->oversample);
 114:.\Generated_Source\PSoC4/ModbusUART_UART.c ****             }
 115:.\Generated_Source\PSoC4/ModbusUART_UART.c **** 
 116:.\Generated_Source\PSoC4/ModbusUART_UART.c ****             ModbusUART_CTRL_REG     |= ModbusUART_GET_CTRL_ADDR_ACCEPT(config->multiprocAcceptAddr)
 117:.\Generated_Source\PSoC4/ModbusUART_UART.c ****                                              ModbusUART_CTRL_UART;
 118:.\Generated_Source\PSoC4/ModbusUART_UART.c **** 
 119:.\Generated_Source\PSoC4/ModbusUART_UART.c ****             /* Confiuure submode: UART, SmartCard or IrDA */
 120:.\Generated_Source\PSoC4/ModbusUART_UART.c ****             ModbusUART_UART_CTRL_REG = ModbusUART_GET_UART_CTRL_MODE(config->mode);
 121:.\Generated_Source\PSoC4/ModbusUART_UART.c **** 
 122:.\Generated_Source\PSoC4/ModbusUART_UART.c ****             /* Configure RX direction */
 123:.\Generated_Source\PSoC4/ModbusUART_UART.c ****             ModbusUART_UART_RX_CTRL_REG = ModbusUART_GET_UART_RX_CTRL_MODE(config->stopBits)       
 124:.\Generated_Source\PSoC4/ModbusUART_UART.c ****                                         ModbusUART_GET_UART_RX_CTRL_POLARITY(config->enableInverted
 125:.\Generated_Source\PSoC4/ModbusUART_UART.c ****                                         ModbusUART_GET_UART_RX_CTRL_MP_MODE(config->enableMultiproc
 126:.\Generated_Source\PSoC4/ModbusUART_UART.c ****                                         ModbusUART_GET_UART_RX_CTRL_DROP_ON_PARITY_ERR(config->drop
 127:.\Generated_Source\PSoC4/ModbusUART_UART.c ****                                         ModbusUART_GET_UART_RX_CTRL_DROP_ON_FRAME_ERR(config->dropO
 128:.\Generated_Source\PSoC4/ModbusUART_UART.c **** 
 129:.\Generated_Source\PSoC4/ModbusUART_UART.c ****             if(ModbusUART_UART_PARITY_NONE != config->parity)
 130:.\Generated_Source\PSoC4/ModbusUART_UART.c ****             {
 131:.\Generated_Source\PSoC4/ModbusUART_UART.c ****                ModbusUART_UART_RX_CTRL_REG |= ModbusUART_GET_UART_RX_CTRL_PARITY(config->parity) |
 132:.\Generated_Source\PSoC4/ModbusUART_UART.c ****                                                     ModbusUART_UART_RX_CTRL_PARITY_ENABLED;
 133:.\Generated_Source\PSoC4/ModbusUART_UART.c ****             }
 134:.\Generated_Source\PSoC4/ModbusUART_UART.c **** 
 135:.\Generated_Source\PSoC4/ModbusUART_UART.c ****             ModbusUART_RX_CTRL_REG      = ModbusUART_GET_RX_CTRL_DATA_WIDTH(config->dataBits)      
 136:.\Generated_Source\PSoC4/ModbusUART_UART.c ****                                                 ModbusUART_GET_RX_CTRL_MEDIAN(config->enableMedianF
 137:.\Generated_Source\PSoC4/ModbusUART_UART.c ****                                                 ModbusUART_GET_UART_RX_CTRL_ENABLED(config->directi
 138:.\Generated_Source\PSoC4/ModbusUART_UART.c **** 
 139:.\Generated_Source\PSoC4/ModbusUART_UART.c ****             ModbusUART_RX_FIFO_CTRL_REG = ModbusUART_GET_RX_FIFO_CTRL_TRIGGER_LEVEL(config->rxTrigg
 140:.\Generated_Source\PSoC4/ModbusUART_UART.c **** 
 141:.\Generated_Source\PSoC4/ModbusUART_UART.c ****             /* Configure MP address */
 142:.\Generated_Source\PSoC4/ModbusUART_UART.c ****             ModbusUART_RX_MATCH_REG     = ModbusUART_GET_RX_MATCH_ADDR(config->multiprocAddr) |
 143:.\Generated_Source\PSoC4/ModbusUART_UART.c ****                                                 ModbusUART_GET_RX_MATCH_MASK(config->multiprocAddrM
 144:.\Generated_Source\PSoC4/ModbusUART_UART.c **** 
 145:.\Generated_Source\PSoC4/ModbusUART_UART.c ****             /* Configure RX direction */
 146:.\Generated_Source\PSoC4/ModbusUART_UART.c ****             ModbusUART_UART_TX_CTRL_REG = ModbusUART_GET_UART_TX_CTRL_MODE(config->stopBits) |
ARM GAS  C:\Users\Sam\AppData\Local\Temp\ccPc0UXT.s 			page 4


 147:.\Generated_Source\PSoC4/ModbusUART_UART.c ****                                                 ModbusUART_GET_UART_TX_CTRL_RETRY_NACK(config->enab
 148:.\Generated_Source\PSoC4/ModbusUART_UART.c **** 
 149:.\Generated_Source\PSoC4/ModbusUART_UART.c ****             if(ModbusUART_UART_PARITY_NONE != config->parity)
 150:.\Generated_Source\PSoC4/ModbusUART_UART.c ****             {
 151:.\Generated_Source\PSoC4/ModbusUART_UART.c ****                ModbusUART_UART_TX_CTRL_REG |= ModbusUART_GET_UART_TX_CTRL_PARITY(config->parity) |
 152:.\Generated_Source\PSoC4/ModbusUART_UART.c ****                                                     ModbusUART_UART_TX_CTRL_PARITY_ENABLED;
 153:.\Generated_Source\PSoC4/ModbusUART_UART.c ****             }
 154:.\Generated_Source\PSoC4/ModbusUART_UART.c **** 
 155:.\Generated_Source\PSoC4/ModbusUART_UART.c ****             ModbusUART_TX_CTRL_REG      = ModbusUART_GET_TX_CTRL_DATA_WIDTH(config->dataBits)    |
 156:.\Generated_Source\PSoC4/ModbusUART_UART.c ****                                                 ModbusUART_GET_UART_TX_CTRL_ENABLED(config->directi
 157:.\Generated_Source\PSoC4/ModbusUART_UART.c **** 
 158:.\Generated_Source\PSoC4/ModbusUART_UART.c ****             ModbusUART_TX_FIFO_CTRL_REG = ModbusUART_GET_TX_FIFO_CTRL_TRIGGER_LEVEL(config->txTrigg
 159:.\Generated_Source\PSoC4/ModbusUART_UART.c **** 
 160:.\Generated_Source\PSoC4/ModbusUART_UART.c **** 
 161:.\Generated_Source\PSoC4/ModbusUART_UART.c ****             /* Configure WAKE interrupt */
 162:.\Generated_Source\PSoC4/ModbusUART_UART.c ****             #if(ModbusUART_UART_RX_WAKEUP_IRQ)
 163:.\Generated_Source\PSoC4/ModbusUART_UART.c ****                 ModbusUART_RX_WAKEUP_IRQ_StartEx(&ModbusUART_UART_WAKEUP_ISR);
 164:.\Generated_Source\PSoC4/ModbusUART_UART.c ****                 ModbusUART_RX_WAKEUP_IRQ_Disable();
 165:.\Generated_Source\PSoC4/ModbusUART_UART.c ****             #endif /* (ModbusUART_UART_RX_WAKEUP_IRQ) */
 166:.\Generated_Source\PSoC4/ModbusUART_UART.c **** 
 167:.\Generated_Source\PSoC4/ModbusUART_UART.c ****             /* Configure interrupt with UART handler */
 168:.\Generated_Source\PSoC4/ModbusUART_UART.c ****             ModbusUART_SCB_IRQ_Disable();
 169:.\Generated_Source\PSoC4/ModbusUART_UART.c ****             ModbusUART_SCB_IRQ_SetVector(&ModbusUART_SPI_UART_ISR);
 170:.\Generated_Source\PSoC4/ModbusUART_UART.c ****             ModbusUART_SCB_IRQ_SetPriority((uint8)ModbusUART_SCB_IRQ_INTC_PRIOR_NUMBER);
 171:.\Generated_Source\PSoC4/ModbusUART_UART.c **** 
 172:.\Generated_Source\PSoC4/ModbusUART_UART.c ****             /* Configure interrupt sources */
 173:.\Generated_Source\PSoC4/ModbusUART_UART.c ****             ModbusUART_INTR_I2C_EC_MASK_REG = ModbusUART_NO_INTR_SOURCES;
 174:.\Generated_Source\PSoC4/ModbusUART_UART.c ****             ModbusUART_INTR_SPI_EC_MASK_REG = ModbusUART_NO_INTR_SOURCES;
 175:.\Generated_Source\PSoC4/ModbusUART_UART.c ****             ModbusUART_INTR_SLAVE_MASK_REG  = ModbusUART_NO_INTR_SOURCES;
 176:.\Generated_Source\PSoC4/ModbusUART_UART.c ****             ModbusUART_INTR_MASTER_MASK_REG = ModbusUART_NO_INTR_SOURCES;
 177:.\Generated_Source\PSoC4/ModbusUART_UART.c ****             ModbusUART_INTR_RX_MASK_REG     = config->rxInterruptMask;
 178:.\Generated_Source\PSoC4/ModbusUART_UART.c ****             ModbusUART_INTR_TX_MASK_REG     = config->txInterruptMask;
 179:.\Generated_Source\PSoC4/ModbusUART_UART.c **** 
 180:.\Generated_Source\PSoC4/ModbusUART_UART.c ****             /* Clear RX buffer indexes */
 181:.\Generated_Source\PSoC4/ModbusUART_UART.c ****             ModbusUART_rxBufferHead     = 0u;
 182:.\Generated_Source\PSoC4/ModbusUART_UART.c ****             ModbusUART_rxBufferTail     = 0u;
 183:.\Generated_Source\PSoC4/ModbusUART_UART.c ****             ModbusUART_rxBufferOverflow = 0u;
 184:.\Generated_Source\PSoC4/ModbusUART_UART.c **** 
 185:.\Generated_Source\PSoC4/ModbusUART_UART.c ****             /* Clrea TX buffer indexes */
 186:.\Generated_Source\PSoC4/ModbusUART_UART.c ****             ModbusUART_txBufferHead = 0u;
 187:.\Generated_Source\PSoC4/ModbusUART_UART.c ****             ModbusUART_txBufferTail = 0u;
 188:.\Generated_Source\PSoC4/ModbusUART_UART.c ****         }
 189:.\Generated_Source\PSoC4/ModbusUART_UART.c ****     }
 190:.\Generated_Source\PSoC4/ModbusUART_UART.c **** 
 191:.\Generated_Source\PSoC4/ModbusUART_UART.c **** #else
 192:.\Generated_Source\PSoC4/ModbusUART_UART.c **** 
 193:.\Generated_Source\PSoC4/ModbusUART_UART.c ****     /*******************************************************************************
 194:.\Generated_Source\PSoC4/ModbusUART_UART.c ****     * Function Name: ModbusUART_UartInit
 195:.\Generated_Source\PSoC4/ModbusUART_UART.c ****     ********************************************************************************
 196:.\Generated_Source\PSoC4/ModbusUART_UART.c ****     *
 197:.\Generated_Source\PSoC4/ModbusUART_UART.c ****     * Summary:
 198:.\Generated_Source\PSoC4/ModbusUART_UART.c ****     *  Configures the SCB for SPI operation.
 199:.\Generated_Source\PSoC4/ModbusUART_UART.c ****     *
 200:.\Generated_Source\PSoC4/ModbusUART_UART.c ****     * Parameters:
 201:.\Generated_Source\PSoC4/ModbusUART_UART.c ****     *  None
 202:.\Generated_Source\PSoC4/ModbusUART_UART.c ****     *
 203:.\Generated_Source\PSoC4/ModbusUART_UART.c ****     * Return:
ARM GAS  C:\Users\Sam\AppData\Local\Temp\ccPc0UXT.s 			page 5


 204:.\Generated_Source\PSoC4/ModbusUART_UART.c ****     *  None
 205:.\Generated_Source\PSoC4/ModbusUART_UART.c ****     *
 206:.\Generated_Source\PSoC4/ModbusUART_UART.c ****     *******************************************************************************/
 207:.\Generated_Source\PSoC4/ModbusUART_UART.c ****     void ModbusUART_UartInit(void)
 208:.\Generated_Source\PSoC4/ModbusUART_UART.c ****     {
  26              		.loc 1 208 0
  27              		.cfi_startproc
  28 0000 80B5     		push	{r7, lr}
  29              	.LCFI0:
  30              		.cfi_def_cfa_offset 8
  31              		.cfi_offset 7, -8
  32              		.cfi_offset 14, -4
  33 0002 00AF     		add	r7, sp, #0
  34              	.LCFI1:
  35              		.cfi_def_cfa_register 7
 209:.\Generated_Source\PSoC4/ModbusUART_UART.c ****         /* Configure UART interface */
 210:.\Generated_Source\PSoC4/ModbusUART_UART.c ****         ModbusUART_CTRL_REG = ModbusUART_UART_DEFAULT_CTRL;
  36              		.loc 1 210 0
  37 0004 174B     		ldr	r3, .L2
  38 0006 184A     		ldr	r2, .L2+4
  39 0008 1A60     		str	r2, [r3]
 211:.\Generated_Source\PSoC4/ModbusUART_UART.c **** 
 212:.\Generated_Source\PSoC4/ModbusUART_UART.c ****         /* Confiuure submode: UART, SmartCard or IrDA */
 213:.\Generated_Source\PSoC4/ModbusUART_UART.c ****         ModbusUART_UART_CTRL_REG = ModbusUART_UART_DEFAULT_UART_CTRL;
  40              		.loc 1 213 0
  41 000a 184B     		ldr	r3, .L2+8
  42 000c 0022     		mov	r2, #0
  43 000e 1A60     		str	r2, [r3]
 214:.\Generated_Source\PSoC4/ModbusUART_UART.c **** 
 215:.\Generated_Source\PSoC4/ModbusUART_UART.c ****         /* Configure RX direction */
 216:.\Generated_Source\PSoC4/ModbusUART_UART.c ****         ModbusUART_UART_RX_CTRL_REG = ModbusUART_UART_DEFAULT_UART_RX_CTRL;
  44              		.loc 1 216 0
  45 0010 174B     		ldr	r3, .L2+12
  46 0012 0122     		mov	r2, #1
  47 0014 1A60     		str	r2, [r3]
 217:.\Generated_Source\PSoC4/ModbusUART_UART.c ****         ModbusUART_RX_CTRL_REG      = ModbusUART_UART_DEFAULT_RX_CTRL;
  48              		.loc 1 217 0
  49 0016 174B     		ldr	r3, .L2+16
  50 0018 174A     		ldr	r2, .L2+20
  51 001a 1A60     		str	r2, [r3]
 218:.\Generated_Source\PSoC4/ModbusUART_UART.c ****         ModbusUART_RX_FIFO_CTRL_REG = ModbusUART_UART_DEFAULT_RX_FIFO_CTRL;
  52              		.loc 1 218 0
  53 001c 174B     		ldr	r3, .L2+24
  54 001e 0722     		mov	r2, #7
  55 0020 1A60     		str	r2, [r3]
 219:.\Generated_Source\PSoC4/ModbusUART_UART.c ****         ModbusUART_RX_MATCH_REG     = ModbusUART_UART_DEFAULT_RX_MATCH_REG;
  56              		.loc 1 219 0
  57 0022 174B     		ldr	r3, .L2+28
  58 0024 0022     		mov	r2, #0
  59 0026 1A60     		str	r2, [r3]
 220:.\Generated_Source\PSoC4/ModbusUART_UART.c **** 
 221:.\Generated_Source\PSoC4/ModbusUART_UART.c ****         /* Configure TX direction */
 222:.\Generated_Source\PSoC4/ModbusUART_UART.c ****         ModbusUART_UART_TX_CTRL_REG = ModbusUART_UART_DEFAULT_UART_TX_CTRL;
  60              		.loc 1 222 0
  61 0028 164B     		ldr	r3, .L2+32
  62 002a 0122     		mov	r2, #1
  63 002c 1A60     		str	r2, [r3]
ARM GAS  C:\Users\Sam\AppData\Local\Temp\ccPc0UXT.s 			page 6


 223:.\Generated_Source\PSoC4/ModbusUART_UART.c ****         ModbusUART_TX_CTRL_REG      = ModbusUART_UART_DEFAULT_TX_CTRL;
  64              		.loc 1 223 0
  65 002e 164B     		ldr	r3, .L2+36
  66 0030 164A     		ldr	r2, .L2+40
  67 0032 1A60     		str	r2, [r3]
 224:.\Generated_Source\PSoC4/ModbusUART_UART.c ****         ModbusUART_TX_FIFO_CTRL_REG = ModbusUART_UART_DEFAULT_TX_FIFO_CTRL;
  68              		.loc 1 224 0
  69 0034 164B     		ldr	r3, .L2+44
  70 0036 0022     		mov	r2, #0
  71 0038 1A60     		str	r2, [r3]
 225:.\Generated_Source\PSoC4/ModbusUART_UART.c **** 
 226:.\Generated_Source\PSoC4/ModbusUART_UART.c ****         /* Configure interrupt with UART handler */
 227:.\Generated_Source\PSoC4/ModbusUART_UART.c ****         #if(ModbusUART_SCB_IRQ_INTERNAL)
 228:.\Generated_Source\PSoC4/ModbusUART_UART.c ****             ModbusUART_SCB_IRQ_Disable();
 229:.\Generated_Source\PSoC4/ModbusUART_UART.c ****             ModbusUART_SCB_IRQ_SetVector(&ModbusUART_SPI_UART_ISR);
 230:.\Generated_Source\PSoC4/ModbusUART_UART.c ****             ModbusUART_SCB_IRQ_SetPriority((uint8)ModbusUART_SCB_IRQ_INTC_PRIOR_NUMBER);
 231:.\Generated_Source\PSoC4/ModbusUART_UART.c ****         #endif /* (ModbusUART_SCB_IRQ_INTERNAL) */
 232:.\Generated_Source\PSoC4/ModbusUART_UART.c **** 
 233:.\Generated_Source\PSoC4/ModbusUART_UART.c ****         /* Configure WAKE interrupt */
 234:.\Generated_Source\PSoC4/ModbusUART_UART.c ****         #if(ModbusUART_UART_RX_WAKEUP_IRQ)
 235:.\Generated_Source\PSoC4/ModbusUART_UART.c ****             ModbusUART_RX_WAKEUP_IRQ_StartEx(&ModbusUART_UART_WAKEUP_ISR);
 236:.\Generated_Source\PSoC4/ModbusUART_UART.c ****             ModbusUART_RX_WAKEUP_IRQ_Disable();
 237:.\Generated_Source\PSoC4/ModbusUART_UART.c ****         #endif /* (ModbusUART_UART_RX_WAKEUP_IRQ) */
 238:.\Generated_Source\PSoC4/ModbusUART_UART.c ****         
 239:.\Generated_Source\PSoC4/ModbusUART_UART.c ****         /* Configure interrupt sources */
 240:.\Generated_Source\PSoC4/ModbusUART_UART.c ****         ModbusUART_INTR_I2C_EC_MASK_REG = ModbusUART_UART_DEFAULT_INTR_I2C_EC_MASK;
  72              		.loc 1 240 0
  73 003a 164B     		ldr	r3, .L2+48
  74 003c 0022     		mov	r2, #0
  75 003e 1A60     		str	r2, [r3]
 241:.\Generated_Source\PSoC4/ModbusUART_UART.c ****         ModbusUART_INTR_SPI_EC_MASK_REG = ModbusUART_UART_DEFAULT_INTR_SPI_EC_MASK;
  76              		.loc 1 241 0
  77 0040 154B     		ldr	r3, .L2+52
  78 0042 0022     		mov	r2, #0
  79 0044 1A60     		str	r2, [r3]
 242:.\Generated_Source\PSoC4/ModbusUART_UART.c ****         ModbusUART_INTR_SLAVE_MASK_REG  = ModbusUART_UART_DEFAULT_INTR_SLAVE_MASK;
  80              		.loc 1 242 0
  81 0046 154B     		ldr	r3, .L2+56
  82 0048 0022     		mov	r2, #0
  83 004a 1A60     		str	r2, [r3]
 243:.\Generated_Source\PSoC4/ModbusUART_UART.c ****         ModbusUART_INTR_MASTER_MASK_REG = ModbusUART_UART_DEFAULT_INTR_MASTER_MASK;
  84              		.loc 1 243 0
  85 004c 144B     		ldr	r3, .L2+60
  86 004e 0022     		mov	r2, #0
  87 0050 1A60     		str	r2, [r3]
 244:.\Generated_Source\PSoC4/ModbusUART_UART.c ****         ModbusUART_INTR_RX_MASK_REG     = ModbusUART_UART_DEFAULT_INTR_RX_MASK;
  88              		.loc 1 244 0
  89 0052 144B     		ldr	r3, .L2+64
  90 0054 0422     		mov	r2, #4
  91 0056 1A60     		str	r2, [r3]
 245:.\Generated_Source\PSoC4/ModbusUART_UART.c ****         ModbusUART_INTR_TX_MASK_REG     = ModbusUART_UART_DEFAULT_INTR_TX_MASK;
  92              		.loc 1 245 0
  93 0058 134B     		ldr	r3, .L2+68
  94 005a 0022     		mov	r2, #0
  95 005c 1A60     		str	r2, [r3]
 246:.\Generated_Source\PSoC4/ModbusUART_UART.c **** 
 247:.\Generated_Source\PSoC4/ModbusUART_UART.c ****         #if(ModbusUART_INTERNAL_RX_SW_BUFFER_CONST)
ARM GAS  C:\Users\Sam\AppData\Local\Temp\ccPc0UXT.s 			page 7


 248:.\Generated_Source\PSoC4/ModbusUART_UART.c ****             ModbusUART_rxBufferHead     = 0u;
 249:.\Generated_Source\PSoC4/ModbusUART_UART.c ****             ModbusUART_rxBufferTail     = 0u;
 250:.\Generated_Source\PSoC4/ModbusUART_UART.c ****             ModbusUART_rxBufferOverflow = 0u;
 251:.\Generated_Source\PSoC4/ModbusUART_UART.c ****         #endif /* (ModbusUART_INTERNAL_RX_SW_BUFFER_CONST) */
 252:.\Generated_Source\PSoC4/ModbusUART_UART.c **** 
 253:.\Generated_Source\PSoC4/ModbusUART_UART.c ****         #if(ModbusUART_INTERNAL_TX_SW_BUFFER_CONST)
 254:.\Generated_Source\PSoC4/ModbusUART_UART.c ****             ModbusUART_txBufferHead = 0u;
 255:.\Generated_Source\PSoC4/ModbusUART_UART.c ****             ModbusUART_txBufferTail = 0u;
 256:.\Generated_Source\PSoC4/ModbusUART_UART.c ****         #endif /* (ModbusUART_INTERNAL_TX_SW_BUFFER_CONST) */
 257:.\Generated_Source\PSoC4/ModbusUART_UART.c ****     }
  96              		.loc 1 257 0
  97 005e BD46     		mov	sp, r7
  98              		@ sp needed for prologue
  99 0060 80BD     		pop	{r7, pc}
 100              	.L3:
 101 0062 C046     		.align	2
 102              	.L2:
 103 0064 00000740 		.word	1074200576
 104 0068 0F000002 		.word	33554447
 105 006c 40000740 		.word	1074200640
 106 0070 48000740 		.word	1074200648
 107 0074 00030740 		.word	1074201344
 108 0078 07020080 		.word	-2147483129
 109 007c 04030740 		.word	1074201348
 110 0080 10030740 		.word	1074201360
 111 0084 44000740 		.word	1074200644
 112 0088 00020740 		.word	1074201088
 113 008c 07000080 		.word	-2147483641
 114 0090 04020740 		.word	1074201092
 115 0094 880E0740 		.word	1074204296
 116 0098 C80E0740 		.word	1074204360
 117 009c 480F0740 		.word	1074204488
 118 00a0 080F0740 		.word	1074204424
 119 00a4 C80F0740 		.word	1074204616
 120 00a8 880F0740 		.word	1074204552
 121              		.cfi_endproc
 122              	.LFE0:
 123              		.size	ModbusUART_UartInit, .-ModbusUART_UartInit
 124              		.section	.text.ModbusUART_UartSetRxAddress,"ax",%progbits
 125              		.align	2
 126              		.global	ModbusUART_UartSetRxAddress
 127              		.code	16
 128              		.thumb_func
 129              		.type	ModbusUART_UartSetRxAddress, %function
 130              	ModbusUART_UartSetRxAddress:
 131              	.LFB1:
 258:.\Generated_Source\PSoC4/ModbusUART_UART.c **** 
 259:.\Generated_Source\PSoC4/ModbusUART_UART.c **** #endif /* (ModbusUART_SCB_MODE_UNCONFIG_CONST_CFG) */
 260:.\Generated_Source\PSoC4/ModbusUART_UART.c **** 
 261:.\Generated_Source\PSoC4/ModbusUART_UART.c **** 
 262:.\Generated_Source\PSoC4/ModbusUART_UART.c **** /*******************************************************************************
 263:.\Generated_Source\PSoC4/ModbusUART_UART.c **** * Function Name: ModbusUART_UartSetRxAddress
 264:.\Generated_Source\PSoC4/ModbusUART_UART.c **** ********************************************************************************
 265:.\Generated_Source\PSoC4/ModbusUART_UART.c **** *
 266:.\Generated_Source\PSoC4/ModbusUART_UART.c **** * Summary:
 267:.\Generated_Source\PSoC4/ModbusUART_UART.c **** *  Sets the hardware detectable receiver address for the UART in Multiprocessor
 268:.\Generated_Source\PSoC4/ModbusUART_UART.c **** *  mode.
ARM GAS  C:\Users\Sam\AppData\Local\Temp\ccPc0UXT.s 			page 8


 269:.\Generated_Source\PSoC4/ModbusUART_UART.c **** *
 270:.\Generated_Source\PSoC4/ModbusUART_UART.c **** * Parameters:
 271:.\Generated_Source\PSoC4/ModbusUART_UART.c **** *  address: Address for hardware address detection.
 272:.\Generated_Source\PSoC4/ModbusUART_UART.c **** *
 273:.\Generated_Source\PSoC4/ModbusUART_UART.c **** * Return:
 274:.\Generated_Source\PSoC4/ModbusUART_UART.c **** *  None
 275:.\Generated_Source\PSoC4/ModbusUART_UART.c **** *
 276:.\Generated_Source\PSoC4/ModbusUART_UART.c **** *******************************************************************************/
 277:.\Generated_Source\PSoC4/ModbusUART_UART.c **** void ModbusUART_UartSetRxAddress(uint32 address)
 278:.\Generated_Source\PSoC4/ModbusUART_UART.c **** {
 132              		.loc 1 278 0
 133              		.cfi_startproc
 134 0000 80B5     		push	{r7, lr}
 135              	.LCFI2:
 136              		.cfi_def_cfa_offset 8
 137              		.cfi_offset 7, -8
 138              		.cfi_offset 14, -4
 139 0002 84B0     		sub	sp, sp, #16
 140              	.LCFI3:
 141              		.cfi_def_cfa_offset 24
 142 0004 00AF     		add	r7, sp, #0
 143              	.LCFI4:
 144              		.cfi_def_cfa_register 7
 145 0006 7860     		str	r0, [r7, #4]
 279:.\Generated_Source\PSoC4/ModbusUART_UART.c ****      uint32 matchReg;
 280:.\Generated_Source\PSoC4/ModbusUART_UART.c **** 
 281:.\Generated_Source\PSoC4/ModbusUART_UART.c ****     matchReg = ModbusUART_RX_MATCH_REG;
 146              		.loc 1 281 0
 147 0008 094B     		ldr	r3, .L5
 148 000a 1B68     		ldr	r3, [r3]
 149 000c FB60     		str	r3, [r7, #12]
 282:.\Generated_Source\PSoC4/ModbusUART_UART.c **** 
 283:.\Generated_Source\PSoC4/ModbusUART_UART.c ****     matchReg &= ((uint32) ~ModbusUART_RX_MATCH_ADDR_MASK); /* Clear address bits */
 150              		.loc 1 283 0
 151 000e FB68     		ldr	r3, [r7, #12]
 152 0010 FF22     		mov	r2, #255
 153 0012 9343     		bic	r3, r2
 154 0014 FB60     		str	r3, [r7, #12]
 284:.\Generated_Source\PSoC4/ModbusUART_UART.c ****     matchReg |= ((uint32)  (address & ModbusUART_RX_MATCH_ADDR_MASK)); /* Set address  */
 155              		.loc 1 284 0
 156 0016 7A68     		ldr	r2, [r7, #4]
 157 0018 FF23     		mov	r3, #255
 158 001a 1340     		and	r3, r2
 159 001c FA68     		ldr	r2, [r7, #12]
 160 001e 1343     		orr	r3, r2
 161 0020 FB60     		str	r3, [r7, #12]
 285:.\Generated_Source\PSoC4/ModbusUART_UART.c **** 
 286:.\Generated_Source\PSoC4/ModbusUART_UART.c ****     ModbusUART_RX_MATCH_REG = matchReg;
 162              		.loc 1 286 0
 163 0022 034B     		ldr	r3, .L5
 164 0024 FA68     		ldr	r2, [r7, #12]
 165 0026 1A60     		str	r2, [r3]
 287:.\Generated_Source\PSoC4/ModbusUART_UART.c **** }
 166              		.loc 1 287 0
 167 0028 BD46     		mov	sp, r7
 168 002a 04B0     		add	sp, sp, #16
 169              		@ sp needed for prologue
ARM GAS  C:\Users\Sam\AppData\Local\Temp\ccPc0UXT.s 			page 9


 170 002c 80BD     		pop	{r7, pc}
 171              	.L6:
 172 002e C046     		.align	2
 173              	.L5:
 174 0030 10030740 		.word	1074201360
 175              		.cfi_endproc
 176              	.LFE1:
 177              		.size	ModbusUART_UartSetRxAddress, .-ModbusUART_UartSetRxAddress
 178              		.section	.text.ModbusUART_UartSetRxAddressMask,"ax",%progbits
 179              		.align	2
 180              		.global	ModbusUART_UartSetRxAddressMask
 181              		.code	16
 182              		.thumb_func
 183              		.type	ModbusUART_UartSetRxAddressMask, %function
 184              	ModbusUART_UartSetRxAddressMask:
 185              	.LFB2:
 288:.\Generated_Source\PSoC4/ModbusUART_UART.c **** 
 289:.\Generated_Source\PSoC4/ModbusUART_UART.c **** 
 290:.\Generated_Source\PSoC4/ModbusUART_UART.c **** /*******************************************************************************
 291:.\Generated_Source\PSoC4/ModbusUART_UART.c **** * Function Name: ModbusUART_UartSetRxAddressMask
 292:.\Generated_Source\PSoC4/ModbusUART_UART.c **** ********************************************************************************
 293:.\Generated_Source\PSoC4/ModbusUART_UART.c **** *
 294:.\Generated_Source\PSoC4/ModbusUART_UART.c **** * Summary:
 295:.\Generated_Source\PSoC4/ModbusUART_UART.c **** *  Sets the hardware address mask for the UART in Multiprocessor mode.
 296:.\Generated_Source\PSoC4/ModbusUART_UART.c **** *
 297:.\Generated_Source\PSoC4/ModbusUART_UART.c **** * Parameters:
 298:.\Generated_Source\PSoC4/ModbusUART_UART.c **** *  addressMask: Address mask.
 299:.\Generated_Source\PSoC4/ModbusUART_UART.c **** *   0 - address bit does not care while comparison.
 300:.\Generated_Source\PSoC4/ModbusUART_UART.c **** *   1 - address bit is significant while comparison.
 301:.\Generated_Source\PSoC4/ModbusUART_UART.c **** *
 302:.\Generated_Source\PSoC4/ModbusUART_UART.c **** * Return:
 303:.\Generated_Source\PSoC4/ModbusUART_UART.c **** *  None
 304:.\Generated_Source\PSoC4/ModbusUART_UART.c **** *
 305:.\Generated_Source\PSoC4/ModbusUART_UART.c **** *******************************************************************************/
 306:.\Generated_Source\PSoC4/ModbusUART_UART.c **** void ModbusUART_UartSetRxAddressMask(uint32 addressMask)
 307:.\Generated_Source\PSoC4/ModbusUART_UART.c **** {
 186              		.loc 1 307 0
 187              		.cfi_startproc
 188 0000 80B5     		push	{r7, lr}
 189              	.LCFI5:
 190              		.cfi_def_cfa_offset 8
 191              		.cfi_offset 7, -8
 192              		.cfi_offset 14, -4
 193 0002 84B0     		sub	sp, sp, #16
 194              	.LCFI6:
 195              		.cfi_def_cfa_offset 24
 196 0004 00AF     		add	r7, sp, #0
 197              	.LCFI7:
 198              		.cfi_def_cfa_register 7
 199 0006 7860     		str	r0, [r7, #4]
 308:.\Generated_Source\PSoC4/ModbusUART_UART.c ****     uint32 matchReg;
 309:.\Generated_Source\PSoC4/ModbusUART_UART.c **** 
 310:.\Generated_Source\PSoC4/ModbusUART_UART.c ****     matchReg = ModbusUART_RX_MATCH_REG;
 200              		.loc 1 310 0
 201 0008 084B     		ldr	r3, .L8
 202 000a 1B68     		ldr	r3, [r3]
 203 000c FB60     		str	r3, [r7, #12]
ARM GAS  C:\Users\Sam\AppData\Local\Temp\ccPc0UXT.s 			page 10


 311:.\Generated_Source\PSoC4/ModbusUART_UART.c **** 
 312:.\Generated_Source\PSoC4/ModbusUART_UART.c ****     matchReg &= ((uint32) ~ModbusUART_RX_MATCH_MASK_MASK); /* Clear address mask bits */
 204              		.loc 1 312 0
 205 000e FA68     		ldr	r2, [r7, #12]
 206 0010 074B     		ldr	r3, .L8+4
 207 0012 1340     		and	r3, r2
 208 0014 FB60     		str	r3, [r7, #12]
 313:.\Generated_Source\PSoC4/ModbusUART_UART.c ****     matchReg |= ((uint32) (addressMask << ModbusUART_RX_MATCH_MASK_POS));
 209              		.loc 1 313 0
 210 0016 7B68     		ldr	r3, [r7, #4]
 211 0018 1B04     		lsl	r3, r3, #16
 212 001a FA68     		ldr	r2, [r7, #12]
 213 001c 1343     		orr	r3, r2
 214 001e FB60     		str	r3, [r7, #12]
 314:.\Generated_Source\PSoC4/ModbusUART_UART.c **** 
 315:.\Generated_Source\PSoC4/ModbusUART_UART.c ****     ModbusUART_RX_MATCH_REG = matchReg;
 215              		.loc 1 315 0
 216 0020 024B     		ldr	r3, .L8
 217 0022 FA68     		ldr	r2, [r7, #12]
 218 0024 1A60     		str	r2, [r3]
 316:.\Generated_Source\PSoC4/ModbusUART_UART.c **** }
 219              		.loc 1 316 0
 220 0026 BD46     		mov	sp, r7
 221 0028 04B0     		add	sp, sp, #16
 222              		@ sp needed for prologue
 223 002a 80BD     		pop	{r7, pc}
 224              	.L9:
 225              		.align	2
 226              	.L8:
 227 002c 10030740 		.word	1074201360
 228 0030 FFFF00FF 		.word	-16711681
 229              		.cfi_endproc
 230              	.LFE2:
 231              		.size	ModbusUART_UartSetRxAddressMask, .-ModbusUART_UartSetRxAddressMask
 232              		.section	.text.ModbusUART_UartGetChar,"ax",%progbits
 233              		.align	2
 234              		.global	ModbusUART_UartGetChar
 235              		.code	16
 236              		.thumb_func
 237              		.type	ModbusUART_UartGetChar, %function
 238              	ModbusUART_UartGetChar:
 239              	.LFB3:
 317:.\Generated_Source\PSoC4/ModbusUART_UART.c **** 
 318:.\Generated_Source\PSoC4/ModbusUART_UART.c **** 
 319:.\Generated_Source\PSoC4/ModbusUART_UART.c **** #if(ModbusUART_UART_RX_DIRECTION)
 320:.\Generated_Source\PSoC4/ModbusUART_UART.c ****     /*******************************************************************************
 321:.\Generated_Source\PSoC4/ModbusUART_UART.c ****     * Function Name: ModbusUART_UartGetChar
 322:.\Generated_Source\PSoC4/ModbusUART_UART.c ****     ********************************************************************************
 323:.\Generated_Source\PSoC4/ModbusUART_UART.c ****     *
 324:.\Generated_Source\PSoC4/ModbusUART_UART.c ****     * Summary:
 325:.\Generated_Source\PSoC4/ModbusUART_UART.c ****     *  Retrieves next data element from receive buffer.
 326:.\Generated_Source\PSoC4/ModbusUART_UART.c ****     *  This function is designed for ASCII characters and returns a char
 327:.\Generated_Source\PSoC4/ModbusUART_UART.c ****     *  where 1 to 255 is valid characters and 0 indicates an error occurred or
 328:.\Generated_Source\PSoC4/ModbusUART_UART.c ****     *  no data is present.
 329:.\Generated_Source\PSoC4/ModbusUART_UART.c ****     *  RX software buffer disabled: returns data element retrieved from RX FIFO.
 330:.\Generated_Source\PSoC4/ModbusUART_UART.c ****     *  Undefined data will be returned if the RX FIFO is empty.
 331:.\Generated_Source\PSoC4/ModbusUART_UART.c ****     *  RX software buffer enabled: Returns data element from the software receive
ARM GAS  C:\Users\Sam\AppData\Local\Temp\ccPc0UXT.s 			page 11


 332:.\Generated_Source\PSoC4/ModbusUART_UART.c ****     *  buffer.
 333:.\Generated_Source\PSoC4/ModbusUART_UART.c ****     *
 334:.\Generated_Source\PSoC4/ModbusUART_UART.c ****     * Parameters:
 335:.\Generated_Source\PSoC4/ModbusUART_UART.c ****     *  None
 336:.\Generated_Source\PSoC4/ModbusUART_UART.c ****     *
 337:.\Generated_Source\PSoC4/ModbusUART_UART.c ****     * Return:
 338:.\Generated_Source\PSoC4/ModbusUART_UART.c ****     *  Next data element from the receive buffer.
 339:.\Generated_Source\PSoC4/ModbusUART_UART.c ****     *  ASCII character values from 1 to 255 are valid.
 340:.\Generated_Source\PSoC4/ModbusUART_UART.c ****     *  A returned zero signifies an error condition or no data available.
 341:.\Generated_Source\PSoC4/ModbusUART_UART.c ****     *
 342:.\Generated_Source\PSoC4/ModbusUART_UART.c ****     *******************************************************************************/
 343:.\Generated_Source\PSoC4/ModbusUART_UART.c ****     uint32 ModbusUART_UartGetChar(void)
 344:.\Generated_Source\PSoC4/ModbusUART_UART.c ****     {
 240              		.loc 1 344 0
 241              		.cfi_startproc
 242 0000 80B5     		push	{r7, lr}
 243              	.LCFI8:
 244              		.cfi_def_cfa_offset 8
 245              		.cfi_offset 7, -8
 246              		.cfi_offset 14, -4
 247 0002 82B0     		sub	sp, sp, #8
 248              	.LCFI9:
 249              		.cfi_def_cfa_offset 16
 250 0004 00AF     		add	r7, sp, #0
 251              	.LCFI10:
 252              		.cfi_def_cfa_register 7
 345:.\Generated_Source\PSoC4/ModbusUART_UART.c ****         uint32 rxData = 0u;
 253              		.loc 1 345 0
 254 0006 0023     		mov	r3, #0
 255 0008 7B60     		str	r3, [r7, #4]
 346:.\Generated_Source\PSoC4/ModbusUART_UART.c **** 
 347:.\Generated_Source\PSoC4/ModbusUART_UART.c ****         /* Read data only if there is data to read */
 348:.\Generated_Source\PSoC4/ModbusUART_UART.c ****         if(0u != ModbusUART_SpiUartGetRxBufferSize())
 256              		.loc 1 348 0
 257 000a FFF7FEFF 		bl	ModbusUART_SpiUartGetRxBufferSize
 258 000e 031C     		mov	r3, r0
 259 0010 002B     		cmp	r3, #0
 260 0012 03D0     		beq	.L11
 349:.\Generated_Source\PSoC4/ModbusUART_UART.c ****         {
 350:.\Generated_Source\PSoC4/ModbusUART_UART.c ****             rxData = ModbusUART_SpiUartReadRxData();
 261              		.loc 1 350 0
 262 0014 FFF7FEFF 		bl	ModbusUART_SpiUartReadRxData
 263 0018 031C     		mov	r3, r0
 264 001a 7B60     		str	r3, [r7, #4]
 265              	.L11:
 351:.\Generated_Source\PSoC4/ModbusUART_UART.c ****         }
 352:.\Generated_Source\PSoC4/ModbusUART_UART.c **** 
 353:.\Generated_Source\PSoC4/ModbusUART_UART.c ****         if(ModbusUART_CHECK_INTR_RX(ModbusUART_INTR_RX_ERR))
 266              		.loc 1 353 0
 267 001c 084B     		ldr	r3, .L14
 268 001e 1A68     		ldr	r2, [r3]
 269 0020 D823     		mov	r3, #216
 270 0022 9B00     		lsl	r3, r3, #2
 271 0024 1340     		and	r3, r2
 272 0026 05D0     		beq	.L12
 354:.\Generated_Source\PSoC4/ModbusUART_UART.c ****         {
 355:.\Generated_Source\PSoC4/ModbusUART_UART.c ****             rxData = 0u; /* Error occured: return zero */
ARM GAS  C:\Users\Sam\AppData\Local\Temp\ccPc0UXT.s 			page 12


 273              		.loc 1 355 0
 274 0028 0023     		mov	r3, #0
 275 002a 7B60     		str	r3, [r7, #4]
 356:.\Generated_Source\PSoC4/ModbusUART_UART.c ****             ModbusUART_ClearRxInterruptSource(ModbusUART_INTR_RX_ERR);
 276              		.loc 1 356 0
 277 002c 044B     		ldr	r3, .L14
 278 002e D822     		mov	r2, #216
 279 0030 9200     		lsl	r2, r2, #2
 280 0032 1A60     		str	r2, [r3]
 281              	.L12:
 357:.\Generated_Source\PSoC4/ModbusUART_UART.c ****         }
 358:.\Generated_Source\PSoC4/ModbusUART_UART.c **** 
 359:.\Generated_Source\PSoC4/ModbusUART_UART.c ****         return(rxData);
 282              		.loc 1 359 0
 283 0034 7B68     		ldr	r3, [r7, #4]
 360:.\Generated_Source\PSoC4/ModbusUART_UART.c ****     }
 284              		.loc 1 360 0
 285 0036 181C     		mov	r0, r3
 286 0038 BD46     		mov	sp, r7
 287 003a 02B0     		add	sp, sp, #8
 288              		@ sp needed for prologue
 289 003c 80BD     		pop	{r7, pc}
 290              	.L15:
 291 003e C046     		.align	2
 292              	.L14:
 293 0040 C00F0740 		.word	1074204608
 294              		.cfi_endproc
 295              	.LFE3:
 296              		.size	ModbusUART_UartGetChar, .-ModbusUART_UartGetChar
 297              		.section	.text.ModbusUART_UartGetByte,"ax",%progbits
 298              		.align	2
 299              		.global	ModbusUART_UartGetByte
 300              		.code	16
 301              		.thumb_func
 302              		.type	ModbusUART_UartGetByte, %function
 303              	ModbusUART_UartGetByte:
 304              	.LFB4:
 361:.\Generated_Source\PSoC4/ModbusUART_UART.c **** 
 362:.\Generated_Source\PSoC4/ModbusUART_UART.c **** 
 363:.\Generated_Source\PSoC4/ModbusUART_UART.c ****     /*******************************************************************************
 364:.\Generated_Source\PSoC4/ModbusUART_UART.c ****     * Function Name: ModbusUART_UartGetByte
 365:.\Generated_Source\PSoC4/ModbusUART_UART.c ****     ********************************************************************************
 366:.\Generated_Source\PSoC4/ModbusUART_UART.c ****     *
 367:.\Generated_Source\PSoC4/ModbusUART_UART.c ****     * Summary:
 368:.\Generated_Source\PSoC4/ModbusUART_UART.c ****     *  Retrieves next data element from the receive buffer, returns received byte
 369:.\Generated_Source\PSoC4/ModbusUART_UART.c ****     *  and error condition.
 370:.\Generated_Source\PSoC4/ModbusUART_UART.c ****     *  RX software buffer disabled: Returns data element retrieved from RX FIFO.
 371:.\Generated_Source\PSoC4/ModbusUART_UART.c ****     *  Undefined data will be returned if the RX FIFO is empty.
 372:.\Generated_Source\PSoC4/ModbusUART_UART.c ****     *  RX software buffer enabled: Returns data element from the software receive
 373:.\Generated_Source\PSoC4/ModbusUART_UART.c ****     *  buffer.
 374:.\Generated_Source\PSoC4/ModbusUART_UART.c ****     *
 375:.\Generated_Source\PSoC4/ModbusUART_UART.c ****     * Parameters:
 376:.\Generated_Source\PSoC4/ModbusUART_UART.c ****     *  None
 377:.\Generated_Source\PSoC4/ModbusUART_UART.c ****     *
 378:.\Generated_Source\PSoC4/ModbusUART_UART.c ****     * Return:
 379:.\Generated_Source\PSoC4/ModbusUART_UART.c ****     *  Bits 15-8 contains status and bits 7-0 contains the next data element from
 380:.\Generated_Source\PSoC4/ModbusUART_UART.c ****     *  receive buffer. If the bits 15-8 are nonzero, an error has occurred.
ARM GAS  C:\Users\Sam\AppData\Local\Temp\ccPc0UXT.s 			page 13


 381:.\Generated_Source\PSoC4/ModbusUART_UART.c ****     *
 382:.\Generated_Source\PSoC4/ModbusUART_UART.c ****     *******************************************************************************/
 383:.\Generated_Source\PSoC4/ModbusUART_UART.c ****     uint32 ModbusUART_UartGetByte(void)
 384:.\Generated_Source\PSoC4/ModbusUART_UART.c ****     {
 305              		.loc 1 384 0
 306              		.cfi_startproc
 307 0000 80B5     		push	{r7, lr}
 308              	.LCFI11:
 309              		.cfi_def_cfa_offset 8
 310              		.cfi_offset 7, -8
 311              		.cfi_offset 14, -4
 312 0002 84B0     		sub	sp, sp, #16
 313              	.LCFI12:
 314              		.cfi_def_cfa_offset 24
 315 0004 00AF     		add	r7, sp, #0
 316              	.LCFI13:
 317              		.cfi_def_cfa_register 7
 385:.\Generated_Source\PSoC4/ModbusUART_UART.c ****         uint32 rxData;
 386:.\Generated_Source\PSoC4/ModbusUART_UART.c ****         uint32 tmpStatus;
 387:.\Generated_Source\PSoC4/ModbusUART_UART.c ****         uint32 intSourceMask;
 388:.\Generated_Source\PSoC4/ModbusUART_UART.c **** 
 389:.\Generated_Source\PSoC4/ModbusUART_UART.c ****         intSourceMask = ModbusUART_SpiUartDisableIntRx();
 318              		.loc 1 389 0
 319 0006 FFF7FEFF 		bl	ModbusUART_SpiUartDisableIntRx
 320 000a 031C     		mov	r3, r0
 321 000c BB60     		str	r3, [r7, #8]
 390:.\Generated_Source\PSoC4/ModbusUART_UART.c **** 
 391:.\Generated_Source\PSoC4/ModbusUART_UART.c ****         if(0u != ModbusUART_SpiUartGetRxBufferSize())
 322              		.loc 1 391 0
 323 000e FFF7FEFF 		bl	ModbusUART_SpiUartGetRxBufferSize
 324 0012 031C     		mov	r3, r0
 325 0014 002B     		cmp	r3, #0
 326 0016 07D0     		beq	.L17
 392:.\Generated_Source\PSoC4/ModbusUART_UART.c ****         {
 393:.\Generated_Source\PSoC4/ModbusUART_UART.c ****              /*
 394:.\Generated_Source\PSoC4/ModbusUART_UART.c ****              * Enable interrupt to receive more bytes: at least one byte is in
 395:.\Generated_Source\PSoC4/ModbusUART_UART.c ****              * buffer.
 396:.\Generated_Source\PSoC4/ModbusUART_UART.c ****              */
 397:.\Generated_Source\PSoC4/ModbusUART_UART.c ****             ModbusUART_SpiUartEnableIntRx(intSourceMask);
 327              		.loc 1 397 0
 328 0018 104B     		ldr	r3, .L20
 329 001a BA68     		ldr	r2, [r7, #8]
 330 001c 1A60     		str	r2, [r3]
 398:.\Generated_Source\PSoC4/ModbusUART_UART.c **** 
 399:.\Generated_Source\PSoC4/ModbusUART_UART.c ****             /* Get received byte */
 400:.\Generated_Source\PSoC4/ModbusUART_UART.c ****             rxData = ModbusUART_SpiUartReadRxData();
 331              		.loc 1 400 0
 332 001e FFF7FEFF 		bl	ModbusUART_SpiUartReadRxData
 333 0022 031C     		mov	r3, r0
 334 0024 FB60     		str	r3, [r7, #12]
 335 0026 05E0     		b	.L18
 336              	.L17:
 401:.\Generated_Source\PSoC4/ModbusUART_UART.c ****         }
 402:.\Generated_Source\PSoC4/ModbusUART_UART.c ****         else
 403:.\Generated_Source\PSoC4/ModbusUART_UART.c ****         {
 404:.\Generated_Source\PSoC4/ModbusUART_UART.c ****             /*
 405:.\Generated_Source\PSoC4/ModbusUART_UART.c ****             * Read byte directly from RX FIFO: the underflow is raised in case
ARM GAS  C:\Users\Sam\AppData\Local\Temp\ccPc0UXT.s 			page 14


 406:.\Generated_Source\PSoC4/ModbusUART_UART.c ****             * of empty. In other case the first received byte will be read.
 407:.\Generated_Source\PSoC4/ModbusUART_UART.c ****             */
 408:.\Generated_Source\PSoC4/ModbusUART_UART.c ****             rxData = ModbusUART_RX_FIFO_RD_REG;
 337              		.loc 1 408 0
 338 0028 0D4B     		ldr	r3, .L20+4
 339 002a 1B68     		ldr	r3, [r3]
 340 002c FB60     		str	r3, [r7, #12]
 409:.\Generated_Source\PSoC4/ModbusUART_UART.c **** 
 410:.\Generated_Source\PSoC4/ModbusUART_UART.c ****             /*
 411:.\Generated_Source\PSoC4/ModbusUART_UART.c ****             * Enable interrupt to receive more bytes.
 412:.\Generated_Source\PSoC4/ModbusUART_UART.c ****             * The RX_NOT_EMPTY interrupt is cleared by interrupt routine in case
 413:.\Generated_Source\PSoC4/ModbusUART_UART.c ****             * byte was received and read above.
 414:.\Generated_Source\PSoC4/ModbusUART_UART.c ****             */
 415:.\Generated_Source\PSoC4/ModbusUART_UART.c ****             ModbusUART_SpiUartEnableIntRx(intSourceMask);
 341              		.loc 1 415 0
 342 002e 0B4B     		ldr	r3, .L20
 343 0030 BA68     		ldr	r2, [r7, #8]
 344 0032 1A60     		str	r2, [r3]
 345              	.L18:
 416:.\Generated_Source\PSoC4/ModbusUART_UART.c ****         }
 417:.\Generated_Source\PSoC4/ModbusUART_UART.c **** 
 418:.\Generated_Source\PSoC4/ModbusUART_UART.c ****         /* Get and clear RX error mask */
 419:.\Generated_Source\PSoC4/ModbusUART_UART.c ****         tmpStatus = (ModbusUART_GetRxInterruptSource() & ModbusUART_INTR_RX_ERR);
 346              		.loc 1 419 0
 347 0034 0B4B     		ldr	r3, .L20+8
 348 0036 1A68     		ldr	r2, [r3]
 349 0038 D823     		mov	r3, #216
 350 003a 9B00     		lsl	r3, r3, #2
 351 003c 1340     		and	r3, r2
 352 003e 7B60     		str	r3, [r7, #4]
 420:.\Generated_Source\PSoC4/ModbusUART_UART.c ****         ModbusUART_ClearRxInterruptSource(ModbusUART_INTR_RX_ERR);
 353              		.loc 1 420 0
 354 0040 084B     		ldr	r3, .L20+8
 355 0042 D822     		mov	r2, #216
 356 0044 9200     		lsl	r2, r2, #2
 357 0046 1A60     		str	r2, [r3]
 421:.\Generated_Source\PSoC4/ModbusUART_UART.c **** 
 422:.\Generated_Source\PSoC4/ModbusUART_UART.c ****         /*
 423:.\Generated_Source\PSoC4/ModbusUART_UART.c ****         * Put together data and error status:
 424:.\Generated_Source\PSoC4/ModbusUART_UART.c ****         * MP mode and accept address: the 9th bit is set to notify mark.
 425:.\Generated_Source\PSoC4/ModbusUART_UART.c ****         */
 426:.\Generated_Source\PSoC4/ModbusUART_UART.c ****         rxData |= ((uint32) (tmpStatus << 8u));
 358              		.loc 1 426 0
 359 0048 7B68     		ldr	r3, [r7, #4]
 360 004a 1B02     		lsl	r3, r3, #8
 361 004c FA68     		ldr	r2, [r7, #12]
 362 004e 1343     		orr	r3, r2
 363 0050 FB60     		str	r3, [r7, #12]
 427:.\Generated_Source\PSoC4/ModbusUART_UART.c **** 
 428:.\Generated_Source\PSoC4/ModbusUART_UART.c ****         return(rxData);
 364              		.loc 1 428 0
 365 0052 FB68     		ldr	r3, [r7, #12]
 429:.\Generated_Source\PSoC4/ModbusUART_UART.c ****     }
 366              		.loc 1 429 0
 367 0054 181C     		mov	r0, r3
 368 0056 BD46     		mov	sp, r7
 369 0058 04B0     		add	sp, sp, #16
ARM GAS  C:\Users\Sam\AppData\Local\Temp\ccPc0UXT.s 			page 15


 370              		@ sp needed for prologue
 371 005a 80BD     		pop	{r7, pc}
 372              	.L21:
 373              		.align	2
 374              	.L20:
 375 005c C80F0740 		.word	1074204616
 376 0060 40030740 		.word	1074201408
 377 0064 C00F0740 		.word	1074204608
 378              		.cfi_endproc
 379              	.LFE4:
 380              		.size	ModbusUART_UartGetByte, .-ModbusUART_UartGetByte
 381              		.section	.text.ModbusUART_UartPutString,"ax",%progbits
 382              		.align	2
 383              		.global	ModbusUART_UartPutString
 384              		.code	16
 385              		.thumb_func
 386              		.type	ModbusUART_UartPutString, %function
 387              	ModbusUART_UartPutString:
 388              	.LFB5:
 430:.\Generated_Source\PSoC4/ModbusUART_UART.c **** 
 431:.\Generated_Source\PSoC4/ModbusUART_UART.c **** #endif /* (ModbusUART_UART_RX_DIRECTION) */
 432:.\Generated_Source\PSoC4/ModbusUART_UART.c **** 
 433:.\Generated_Source\PSoC4/ModbusUART_UART.c **** 
 434:.\Generated_Source\PSoC4/ModbusUART_UART.c **** #if(ModbusUART_UART_TX_DIRECTION)
 435:.\Generated_Source\PSoC4/ModbusUART_UART.c ****     /*******************************************************************************
 436:.\Generated_Source\PSoC4/ModbusUART_UART.c ****     * Function Name: ModbusUART_UartPutString
 437:.\Generated_Source\PSoC4/ModbusUART_UART.c ****     ********************************************************************************
 438:.\Generated_Source\PSoC4/ModbusUART_UART.c ****     *
 439:.\Generated_Source\PSoC4/ModbusUART_UART.c ****     * Summary:
 440:.\Generated_Source\PSoC4/ModbusUART_UART.c ****     *  Places a NULL terminated string in the transmit buffer to be sent at the
 441:.\Generated_Source\PSoC4/ModbusUART_UART.c ****     *  next available bus time.
 442:.\Generated_Source\PSoC4/ModbusUART_UART.c ****     *  This function is blocking and waits until there is a space available to put
 443:.\Generated_Source\PSoC4/ModbusUART_UART.c ****     *  all requested data in transmit buffer.
 444:.\Generated_Source\PSoC4/ModbusUART_UART.c ****     *
 445:.\Generated_Source\PSoC4/ModbusUART_UART.c ****     * Parameters:
 446:.\Generated_Source\PSoC4/ModbusUART_UART.c ****     *  string: pointer to the null terminated string array to be placed in the
 447:.\Generated_Source\PSoC4/ModbusUART_UART.c ****     *          transmit buffer.
 448:.\Generated_Source\PSoC4/ModbusUART_UART.c ****     *
 449:.\Generated_Source\PSoC4/ModbusUART_UART.c ****     * Return:
 450:.\Generated_Source\PSoC4/ModbusUART_UART.c ****     *  None
 451:.\Generated_Source\PSoC4/ModbusUART_UART.c ****     *
 452:.\Generated_Source\PSoC4/ModbusUART_UART.c ****     *******************************************************************************/
 453:.\Generated_Source\PSoC4/ModbusUART_UART.c ****     void ModbusUART_UartPutString(const char8 string[])
 454:.\Generated_Source\PSoC4/ModbusUART_UART.c ****     {
 389              		.loc 1 454 0
 390              		.cfi_startproc
 391 0000 80B5     		push	{r7, lr}
 392              	.LCFI14:
 393              		.cfi_def_cfa_offset 8
 394              		.cfi_offset 7, -8
 395              		.cfi_offset 14, -4
 396 0002 84B0     		sub	sp, sp, #16
 397              	.LCFI15:
 398              		.cfi_def_cfa_offset 24
 399 0004 00AF     		add	r7, sp, #0
 400              	.LCFI16:
 401              		.cfi_def_cfa_register 7
ARM GAS  C:\Users\Sam\AppData\Local\Temp\ccPc0UXT.s 			page 16


 402 0006 7860     		str	r0, [r7, #4]
 455:.\Generated_Source\PSoC4/ModbusUART_UART.c ****         uint32 bufIndex;
 456:.\Generated_Source\PSoC4/ModbusUART_UART.c **** 
 457:.\Generated_Source\PSoC4/ModbusUART_UART.c ****         bufIndex = 0u;
 403              		.loc 1 457 0
 404 0008 0023     		mov	r3, #0
 405 000a FB60     		str	r3, [r7, #12]
 458:.\Generated_Source\PSoC4/ModbusUART_UART.c **** 
 459:.\Generated_Source\PSoC4/ModbusUART_UART.c ****         /* Blocks the control flow until all data will be sent */
 460:.\Generated_Source\PSoC4/ModbusUART_UART.c ****         while(string[bufIndex] != ((char8) 0))
 406              		.loc 1 460 0
 407 000c 09E0     		b	.L23
 408              	.L24:
 461:.\Generated_Source\PSoC4/ModbusUART_UART.c ****         {
 462:.\Generated_Source\PSoC4/ModbusUART_UART.c ****             ModbusUART_UartPutChar((uint32) string[bufIndex]);
 409              		.loc 1 462 0
 410 000e 7A68     		ldr	r2, [r7, #4]
 411 0010 FB68     		ldr	r3, [r7, #12]
 412 0012 D318     		add	r3, r2, r3
 413 0014 1B78     		ldrb	r3, [r3]
 414 0016 181C     		mov	r0, r3
 415 0018 FFF7FEFF 		bl	ModbusUART_SpiUartWriteTxData
 463:.\Generated_Source\PSoC4/ModbusUART_UART.c ****             bufIndex++;
 416              		.loc 1 463 0
 417 001c FB68     		ldr	r3, [r7, #12]
 418 001e 0133     		add	r3, r3, #1
 419 0020 FB60     		str	r3, [r7, #12]
 420              	.L23:
 460:.\Generated_Source\PSoC4/ModbusUART_UART.c ****         while(string[bufIndex] != ((char8) 0))
 421              		.loc 1 460 0 discriminator 1
 422 0022 7A68     		ldr	r2, [r7, #4]
 423 0024 FB68     		ldr	r3, [r7, #12]
 424 0026 D318     		add	r3, r2, r3
 425 0028 1B78     		ldrb	r3, [r3]
 426 002a 002B     		cmp	r3, #0
 427 002c EFD1     		bne	.L24
 464:.\Generated_Source\PSoC4/ModbusUART_UART.c ****         }
 465:.\Generated_Source\PSoC4/ModbusUART_UART.c ****     }
 428              		.loc 1 465 0
 429 002e BD46     		mov	sp, r7
 430 0030 04B0     		add	sp, sp, #16
 431              		@ sp needed for prologue
 432 0032 80BD     		pop	{r7, pc}
 433              		.cfi_endproc
 434              	.LFE5:
 435              		.size	ModbusUART_UartPutString, .-ModbusUART_UartPutString
 436              		.section	.text.ModbusUART_UartPutCRLF,"ax",%progbits
 437              		.align	2
 438              		.global	ModbusUART_UartPutCRLF
 439              		.code	16
 440              		.thumb_func
 441              		.type	ModbusUART_UartPutCRLF, %function
 442              	ModbusUART_UartPutCRLF:
 443              	.LFB6:
 466:.\Generated_Source\PSoC4/ModbusUART_UART.c **** 
 467:.\Generated_Source\PSoC4/ModbusUART_UART.c **** 
 468:.\Generated_Source\PSoC4/ModbusUART_UART.c ****     /*******************************************************************************
ARM GAS  C:\Users\Sam\AppData\Local\Temp\ccPc0UXT.s 			page 17


 469:.\Generated_Source\PSoC4/ModbusUART_UART.c ****     * Function Name: ModbusUART_UartPutCRLF
 470:.\Generated_Source\PSoC4/ModbusUART_UART.c ****     ********************************************************************************
 471:.\Generated_Source\PSoC4/ModbusUART_UART.c ****     *
 472:.\Generated_Source\PSoC4/ModbusUART_UART.c ****     * Summary:
 473:.\Generated_Source\PSoC4/ModbusUART_UART.c ****     *  Places byte of data followed by a carriage return (0x0D) and line feed (0x0A)
 474:.\Generated_Source\PSoC4/ModbusUART_UART.c ****     *  to the transmit buffer.
 475:.\Generated_Source\PSoC4/ModbusUART_UART.c ****     *  This function is blocking and waits until there is a space available to put
 476:.\Generated_Source\PSoC4/ModbusUART_UART.c ****     *  all requested data in transmit buffer.
 477:.\Generated_Source\PSoC4/ModbusUART_UART.c ****     *
 478:.\Generated_Source\PSoC4/ModbusUART_UART.c ****     * Parameters:
 479:.\Generated_Source\PSoC4/ModbusUART_UART.c ****     *  txDataByte : the data to be transmitted.
 480:.\Generated_Source\PSoC4/ModbusUART_UART.c ****     *
 481:.\Generated_Source\PSoC4/ModbusUART_UART.c ****     * Return:
 482:.\Generated_Source\PSoC4/ModbusUART_UART.c ****     *  None
 483:.\Generated_Source\PSoC4/ModbusUART_UART.c ****     *
 484:.\Generated_Source\PSoC4/ModbusUART_UART.c ****     *******************************************************************************/
 485:.\Generated_Source\PSoC4/ModbusUART_UART.c ****     void ModbusUART_UartPutCRLF(uint32 txDataByte)
 486:.\Generated_Source\PSoC4/ModbusUART_UART.c ****     {
 444              		.loc 1 486 0
 445              		.cfi_startproc
 446 0000 80B5     		push	{r7, lr}
 447              	.LCFI17:
 448              		.cfi_def_cfa_offset 8
 449              		.cfi_offset 7, -8
 450              		.cfi_offset 14, -4
 451 0002 82B0     		sub	sp, sp, #8
 452              	.LCFI18:
 453              		.cfi_def_cfa_offset 16
 454 0004 00AF     		add	r7, sp, #0
 455              	.LCFI19:
 456              		.cfi_def_cfa_register 7
 457 0006 7860     		str	r0, [r7, #4]
 487:.\Generated_Source\PSoC4/ModbusUART_UART.c ****         ModbusUART_UartPutChar(txDataByte);  /* Blocks the control flow until all data will be sent
 458              		.loc 1 487 0
 459 0008 7B68     		ldr	r3, [r7, #4]
 460 000a 181C     		mov	r0, r3
 461 000c FFF7FEFF 		bl	ModbusUART_SpiUartWriteTxData
 488:.\Generated_Source\PSoC4/ModbusUART_UART.c ****         ModbusUART_UartPutChar(0x0Du);       /* Blocks the control flow until all data will be sent
 462              		.loc 1 488 0
 463 0010 0D20     		mov	r0, #13
 464 0012 FFF7FEFF 		bl	ModbusUART_SpiUartWriteTxData
 489:.\Generated_Source\PSoC4/ModbusUART_UART.c ****         ModbusUART_UartPutChar(0x0Au);       /* Blocks the control flow until all data will be sent
 465              		.loc 1 489 0
 466 0016 0A20     		mov	r0, #10
 467 0018 FFF7FEFF 		bl	ModbusUART_SpiUartWriteTxData
 490:.\Generated_Source\PSoC4/ModbusUART_UART.c ****     }
 468              		.loc 1 490 0
 469 001c BD46     		mov	sp, r7
 470 001e 02B0     		add	sp, sp, #8
 471              		@ sp needed for prologue
 472 0020 80BD     		pop	{r7, pc}
 473              		.cfi_endproc
 474              	.LFE6:
 475              		.size	ModbusUART_UartPutCRLF, .-ModbusUART_UartPutCRLF
 476 0022 C046     		.text
 477              	.Letext0:
 478              		.file 2 ".\\Generated_Source\\PSoC4\\cytypes.h"
ARM GAS  C:\Users\Sam\AppData\Local\Temp\ccPc0UXT.s 			page 18

